
MyRTOSproject.elf:     file format elf32-littlearm

Sections:
Idx Name          Size      VMA       LMA       File off  Algn
  0 .text         000020a4  00000000  00000000  00010000  2**2
                  CONTENTS, ALLOC, LOAD, READONLY, CODE
  1 .relocate     00000008  20000000  000020a4  00020000  2**2
                  CONTENTS, ALLOC, LOAD, DATA
  2 .bss          00002a10  20000008  000020ac  00020008  2**2
                  ALLOC
  3 .stack        00002000  20002a18  00004abc  00020008  2**0
                  ALLOC
  4 .ARM.attributes 00000028  00000000  00000000  00020008  2**0
                  CONTENTS, READONLY
  5 .comment      00000059  00000000  00000000  00020030  2**0
                  CONTENTS, READONLY
  6 .debug_frame  00000074  00000000  00000000  0002008c  2**2
                  CONTENTS, READONLY, DEBUGGING

Disassembly of section .text:

00000000 <exception_table>:
       0:	18 4a 00 20 f1 02 00 00 ed 02 00 00 ed 02 00 00     .J. ............
	...
      2c:	ad 0c 00 00 00 00 00 00 00 00 00 00 0d 0d 00 00     ................
      3c:	51 0d 00 00 ed 02 00 00 ed 02 00 00 ed 02 00 00     Q...............
      4c:	41 08 00 00 ed 02 00 00 ed 02 00 00 ed 02 00 00     A...............
      5c:	ed 02 00 00 ed 02 00 00 c9 09 00 00 ed 02 00 00     ................
      6c:	ed 02 00 00 ed 02 00 00 ed 02 00 00 ed 02 00 00     ................
      7c:	ed 02 00 00 ed 02 00 00 ed 02 00 00 ed 02 00 00     ................
      8c:	ed 02 00 00 ed 02 00 00 00 00 00 00 00 00 00 00     ................
      9c:	ed 02 00 00 ed 02 00 00 ed 02 00 00 ed 02 00 00     ................
      ac:	ed 02 00 00 00 00 00 00                             ........

000000b4 <__do_global_dtors_aux>:
      b4:	b510      	push	{r4, lr}
      b6:	4c06      	ldr	r4, [pc, #24]	; (d0 <__do_global_dtors_aux+0x1c>)
      b8:	7823      	ldrb	r3, [r4, #0]
      ba:	2b00      	cmp	r3, #0
      bc:	d107      	bne.n	ce <__do_global_dtors_aux+0x1a>
      be:	4b05      	ldr	r3, [pc, #20]	; (d4 <__do_global_dtors_aux+0x20>)
      c0:	2b00      	cmp	r3, #0
      c2:	d002      	beq.n	ca <__do_global_dtors_aux+0x16>
      c4:	4804      	ldr	r0, [pc, #16]	; (d8 <__do_global_dtors_aux+0x24>)
      c6:	e000      	b.n	ca <__do_global_dtors_aux+0x16>
      c8:	bf00      	nop
      ca:	2301      	movs	r3, #1
      cc:	7023      	strb	r3, [r4, #0]
      ce:	bd10      	pop	{r4, pc}
      d0:	20000008 	.word	0x20000008
      d4:	00000000 	.word	0x00000000
      d8:	000020a4 	.word	0x000020a4

000000dc <frame_dummy>:
      dc:	4b08      	ldr	r3, [pc, #32]	; (100 <frame_dummy+0x24>)
      de:	b510      	push	{r4, lr}
      e0:	2b00      	cmp	r3, #0
      e2:	d003      	beq.n	ec <frame_dummy+0x10>
      e4:	4907      	ldr	r1, [pc, #28]	; (104 <frame_dummy+0x28>)
      e6:	4808      	ldr	r0, [pc, #32]	; (108 <frame_dummy+0x2c>)
      e8:	e000      	b.n	ec <frame_dummy+0x10>
      ea:	bf00      	nop
      ec:	4807      	ldr	r0, [pc, #28]	; (10c <frame_dummy+0x30>)
      ee:	6803      	ldr	r3, [r0, #0]
      f0:	2b00      	cmp	r3, #0
      f2:	d100      	bne.n	f6 <frame_dummy+0x1a>
      f4:	bd10      	pop	{r4, pc}
      f6:	4b06      	ldr	r3, [pc, #24]	; (110 <frame_dummy+0x34>)
      f8:	2b00      	cmp	r3, #0
      fa:	d0fb      	beq.n	f4 <frame_dummy+0x18>
      fc:	4798      	blx	r3
      fe:	e7f9      	b.n	f4 <frame_dummy+0x18>
     100:	00000000 	.word	0x00000000
     104:	2000000c 	.word	0x2000000c
     108:	000020a4 	.word	0x000020a4
     10c:	000020a4 	.word	0x000020a4
     110:	00000000 	.word	0x00000000

00000114 <A1_Timer_Timeout>:
     114:	b570      	push	{r4, r5, r6, lr}
     116:	4d10      	ldr	r5, [pc, #64]	; (158 <A1_Timer_Timeout+0x44>)
     118:	b086      	sub	sp, #24
     11a:	682c      	ldr	r4, [r5, #0]
     11c:	4284      	cmp	r4, r0
     11e:	d119      	bne.n	154 <A1_Timer_Timeout+0x40>
     120:	2301      	movs	r3, #1
     122:	2009      	movs	r0, #9
     124:	ae02      	add	r6, sp, #8
     126:	7033      	strb	r3, [r6, #0]
     128:	220b      	movs	r2, #11
     12a:	490c      	ldr	r1, [pc, #48]	; (15c <A1_Timer_Timeout+0x48>)
     12c:	4b0c      	ldr	r3, [pc, #48]	; (160 <A1_Timer_Timeout+0x4c>)
     12e:	4468      	add	r0, sp
     130:	4798      	blx	r3
     132:	2300      	movs	r3, #0
     134:	0031      	movs	r1, r6
     136:	001a      	movs	r2, r3
     138:	6868      	ldr	r0, [r5, #4]
     13a:	4d0a      	ldr	r5, [pc, #40]	; (164 <A1_Timer_Timeout+0x50>)
     13c:	47a8      	blx	r5
     13e:	4b0a      	ldr	r3, [pc, #40]	; (168 <A1_Timer_Timeout+0x54>)
     140:	4798      	blx	r3
     142:	2301      	movs	r3, #1
     144:	425b      	negs	r3, r3
     146:	0002      	movs	r2, r0
     148:	9300      	str	r3, [sp, #0]
     14a:	0020      	movs	r0, r4
     14c:	2300      	movs	r3, #0
     14e:	2102      	movs	r1, #2
     150:	4c06      	ldr	r4, [pc, #24]	; (16c <A1_Timer_Timeout+0x58>)
     152:	47a0      	blx	r4
     154:	b006      	add	sp, #24
     156:	bd70      	pop	{r4, r5, r6, pc}
     158:	20000024 	.word	0x20000024
     15c:	00002010 	.word	0x00002010
     160:	00001fe1 	.word	0x00001fe1
     164:	00001091 	.word	0x00001091
     168:	0000174d 	.word	0x0000174d
     16c:	00001d5d 	.word	0x00001d5d

00000170 <A1_task>:
     170:	b5f7      	push	{r0, r1, r2, r4, r5, r6, r7, lr}
     172:	4b17      	ldr	r3, [pc, #92]	; (1d0 <A1_task+0x60>)
     174:	2200      	movs	r2, #0
     176:	2110      	movs	r1, #16
     178:	200a      	movs	r0, #10
     17a:	4798      	blx	r3
     17c:	4c15      	ldr	r4, [pc, #84]	; (1d4 <A1_task+0x64>)
     17e:	4b16      	ldr	r3, [pc, #88]	; (1d8 <A1_task+0x68>)
     180:	6060      	str	r0, [r4, #4]
     182:	2001      	movs	r0, #1
     184:	4798      	blx	r3
     186:	4b15      	ldr	r3, [pc, #84]	; (1dc <A1_task+0x6c>)
     188:	21fa      	movs	r1, #250	; 0xfa
     18a:	9300      	str	r3, [sp, #0]
     18c:	2300      	movs	r3, #0
     18e:	0089      	lsls	r1, r1, #2
     190:	001a      	movs	r2, r3
     192:	4d13      	ldr	r5, [pc, #76]	; (1e0 <A1_task+0x70>)
     194:	4813      	ldr	r0, [pc, #76]	; (1e4 <A1_task+0x74>)
     196:	47a8      	blx	r5
     198:	4b13      	ldr	r3, [pc, #76]	; (1e8 <A1_task+0x78>)
     19a:	2501      	movs	r5, #1
     19c:	0006      	movs	r6, r0
     19e:	6020      	str	r0, [r4, #0]
     1a0:	4798      	blx	r3
     1a2:	426d      	negs	r5, r5
     1a4:	0002      	movs	r2, r0
     1a6:	9500      	str	r5, [sp, #0]
     1a8:	0030      	movs	r0, r6
     1aa:	2300      	movs	r3, #0
     1ac:	2101      	movs	r1, #1
     1ae:	4e0f      	ldr	r6, [pc, #60]	; (1ec <A1_task+0x7c>)
     1b0:	47b0      	blx	r6
     1b2:	0026      	movs	r6, r4
     1b4:	3608      	adds	r6, #8
     1b6:	2300      	movs	r3, #0
     1b8:	002a      	movs	r2, r5
     1ba:	0031      	movs	r1, r6
     1bc:	6860      	ldr	r0, [r4, #4]
     1be:	4f0c      	ldr	r7, [pc, #48]	; (1f0 <A1_task+0x80>)
     1c0:	47b8      	blx	r7
     1c2:	2800      	cmp	r0, #0
     1c4:	d100      	bne.n	1c8 <A1_task+0x58>
     1c6:	bdf7      	pop	{r0, r1, r2, r4, r5, r6, r7, pc}
     1c8:	0030      	movs	r0, r6
     1ca:	4b0a      	ldr	r3, [pc, #40]	; (1f4 <A1_task+0x84>)
     1cc:	4798      	blx	r3
     1ce:	e7f0      	b.n	1b2 <A1_task+0x42>
     1d0:	00001039 	.word	0x00001039
     1d4:	20000024 	.word	0x20000024
     1d8:	000011e1 	.word	0x000011e1
     1dc:	00000115 	.word	0x00000115
     1e0:	00001d19 	.word	0x00001d19
     1e4:	0000201b 	.word	0x0000201b
     1e8:	0000174d 	.word	0x0000174d
     1ec:	00001d5d 	.word	0x00001d5d
     1f0:	000012e9 	.word	0x000012e9
     1f4:	00000b99 	.word	0x00000b99

000001f8 <A2_Timer_Timeout>:
     1f8:	b5f0      	push	{r4, r5, r6, r7, lr}
     1fa:	4e10      	ldr	r6, [pc, #64]	; (23c <A2_Timer_Timeout+0x44>)
     1fc:	b087      	sub	sp, #28
     1fe:	6834      	ldr	r4, [r6, #0]
     200:	4284      	cmp	r4, r0
     202:	d119      	bne.n	238 <A2_Timer_Timeout+0x40>
     204:	2009      	movs	r0, #9
     206:	2502      	movs	r5, #2
     208:	af02      	add	r7, sp, #8
     20a:	220b      	movs	r2, #11
     20c:	490c      	ldr	r1, [pc, #48]	; (240 <A2_Timer_Timeout+0x48>)
     20e:	4b0d      	ldr	r3, [pc, #52]	; (244 <A2_Timer_Timeout+0x4c>)
     210:	4468      	add	r0, sp
     212:	703d      	strb	r5, [r7, #0]
     214:	4798      	blx	r3
     216:	2300      	movs	r3, #0
     218:	0039      	movs	r1, r7
     21a:	001a      	movs	r2, r3
     21c:	6870      	ldr	r0, [r6, #4]
     21e:	4e0a      	ldr	r6, [pc, #40]	; (248 <A2_Timer_Timeout+0x50>)
     220:	47b0      	blx	r6
     222:	4b0a      	ldr	r3, [pc, #40]	; (24c <A2_Timer_Timeout+0x54>)
     224:	4798      	blx	r3
     226:	2301      	movs	r3, #1
     228:	425b      	negs	r3, r3
     22a:	0002      	movs	r2, r0
     22c:	9300      	str	r3, [sp, #0]
     22e:	0020      	movs	r0, r4
     230:	2300      	movs	r3, #0
     232:	0029      	movs	r1, r5
     234:	4c06      	ldr	r4, [pc, #24]	; (250 <A2_Timer_Timeout+0x58>)
     236:	47a0      	blx	r4
     238:	b007      	add	sp, #28
     23a:	bdf0      	pop	{r4, r5, r6, r7, pc}
     23c:	2000003c 	.word	0x2000003c
     240:	0000202c 	.word	0x0000202c
     244:	00001fe1 	.word	0x00001fe1
     248:	00001091 	.word	0x00001091
     24c:	0000174d 	.word	0x0000174d
     250:	00001d5d 	.word	0x00001d5d

00000254 <A2_task>:
     254:	b5f7      	push	{r0, r1, r2, r4, r5, r6, r7, lr}
     256:	4b17      	ldr	r3, [pc, #92]	; (2b4 <A2_task+0x60>)
     258:	2200      	movs	r2, #0
     25a:	2110      	movs	r1, #16
     25c:	200a      	movs	r0, #10
     25e:	4798      	blx	r3
     260:	4c15      	ldr	r4, [pc, #84]	; (2b8 <A2_task+0x64>)
     262:	4b16      	ldr	r3, [pc, #88]	; (2bc <A2_task+0x68>)
     264:	6060      	str	r0, [r4, #4]
     266:	2001      	movs	r0, #1
     268:	4798      	blx	r3
     26a:	4b15      	ldr	r3, [pc, #84]	; (2c0 <A2_task+0x6c>)
     26c:	4915      	ldr	r1, [pc, #84]	; (2c4 <A2_task+0x70>)
     26e:	9300      	str	r3, [sp, #0]
     270:	2300      	movs	r3, #0
     272:	4d15      	ldr	r5, [pc, #84]	; (2c8 <A2_task+0x74>)
     274:	001a      	movs	r2, r3
     276:	4815      	ldr	r0, [pc, #84]	; (2cc <A2_task+0x78>)
     278:	47a8      	blx	r5
     27a:	4b15      	ldr	r3, [pc, #84]	; (2d0 <A2_task+0x7c>)
     27c:	2501      	movs	r5, #1
     27e:	0006      	movs	r6, r0
     280:	6020      	str	r0, [r4, #0]
     282:	4798      	blx	r3
     284:	426d      	negs	r5, r5
     286:	0002      	movs	r2, r0
     288:	9500      	str	r5, [sp, #0]
     28a:	0030      	movs	r0, r6
     28c:	2300      	movs	r3, #0
     28e:	2101      	movs	r1, #1
     290:	4e10      	ldr	r6, [pc, #64]	; (2d4 <A2_task+0x80>)
     292:	47b0      	blx	r6
     294:	0026      	movs	r6, r4
     296:	3608      	adds	r6, #8
     298:	2300      	movs	r3, #0
     29a:	002a      	movs	r2, r5
     29c:	0031      	movs	r1, r6
     29e:	6860      	ldr	r0, [r4, #4]
     2a0:	4f0d      	ldr	r7, [pc, #52]	; (2d8 <A2_task+0x84>)
     2a2:	47b8      	blx	r7
     2a4:	2800      	cmp	r0, #0
     2a6:	d100      	bne.n	2aa <A2_task+0x56>
     2a8:	bdf7      	pop	{r0, r1, r2, r4, r5, r6, r7, pc}
     2aa:	0030      	movs	r0, r6
     2ac:	4b0b      	ldr	r3, [pc, #44]	; (2dc <A2_task+0x88>)
     2ae:	4798      	blx	r3
     2b0:	e7f0      	b.n	294 <A2_task+0x40>
     2b2:	46c0      	nop			; (mov r8, r8)
     2b4:	00001039 	.word	0x00001039
     2b8:	2000003c 	.word	0x2000003c
     2bc:	000011e1 	.word	0x000011e1
     2c0:	000001f9 	.word	0x000001f9
     2c4:	000005dc 	.word	0x000005dc
     2c8:	00001d19 	.word	0x00001d19
     2cc:	00002037 	.word	0x00002037
     2d0:	0000174d 	.word	0x0000174d
     2d4:	00001d5d 	.word	0x00001d5d
     2d8:	000012e9 	.word	0x000012e9
     2dc:	00000b99 	.word	0x00000b99

000002e0 <atmel_start_init>:
     2e0:	b510      	push	{r4, lr}
     2e2:	4b01      	ldr	r3, [pc, #4]	; (2e8 <atmel_start_init+0x8>)
     2e4:	4798      	blx	r3
     2e6:	bd10      	pop	{r4, pc}
     2e8:	0000043d 	.word	0x0000043d

000002ec <Dummy_Handler>:
     2ec:	e7fe      	b.n	2ec <Dummy_Handler>
	...

000002f0 <Reset_Handler>:
     2f0:	4821      	ldr	r0, [pc, #132]	; (378 <Reset_Handler+0x88>)
     2f2:	4922      	ldr	r1, [pc, #136]	; (37c <Reset_Handler+0x8c>)
     2f4:	b570      	push	{r4, r5, r6, lr}
     2f6:	4288      	cmp	r0, r1
     2f8:	d004      	beq.n	304 <Reset_Handler+0x14>
     2fa:	2300      	movs	r3, #0
     2fc:	4c20      	ldr	r4, [pc, #128]	; (380 <Reset_Handler+0x90>)
     2fe:	18ca      	adds	r2, r1, r3
     300:	42a2      	cmp	r2, r4
     302:	d332      	bcc.n	36a <Reset_Handler+0x7a>
     304:	2100      	movs	r1, #0
     306:	4b1f      	ldr	r3, [pc, #124]	; (384 <Reset_Handler+0x94>)
     308:	4a1f      	ldr	r2, [pc, #124]	; (388 <Reset_Handler+0x98>)
     30a:	4293      	cmp	r3, r2
     30c:	d331      	bcc.n	372 <Reset_Handler+0x82>
     30e:	21ff      	movs	r1, #255	; 0xff
     310:	4b1e      	ldr	r3, [pc, #120]	; (38c <Reset_Handler+0x9c>)
     312:	4a1f      	ldr	r2, [pc, #124]	; (390 <Reset_Handler+0xa0>)
     314:	438b      	bics	r3, r1
     316:	6093      	str	r3, [r2, #8]
     318:	2202      	movs	r2, #2
     31a:	250c      	movs	r5, #12
     31c:	2408      	movs	r4, #8
     31e:	2630      	movs	r6, #48	; 0x30
     320:	4b1c      	ldr	r3, [pc, #112]	; (394 <Reset_Handler+0xa4>)
     322:	481d      	ldr	r0, [pc, #116]	; (398 <Reset_Handler+0xa8>)
     324:	625a      	str	r2, [r3, #36]	; 0x24
     326:	78c3      	ldrb	r3, [r0, #3]
     328:	39fc      	subs	r1, #252	; 0xfc
     32a:	438b      	bics	r3, r1
     32c:	4313      	orrs	r3, r2
     32e:	70c3      	strb	r3, [r0, #3]
     330:	78c3      	ldrb	r3, [r0, #3]
     332:	43ab      	bics	r3, r5
     334:	4323      	orrs	r3, r4
     336:	70c3      	strb	r3, [r0, #3]
     338:	4b18      	ldr	r3, [pc, #96]	; (39c <Reset_Handler+0xac>)
     33a:	7b98      	ldrb	r0, [r3, #14]
     33c:	43b0      	bics	r0, r6
     33e:	0006      	movs	r6, r0
     340:	2020      	movs	r0, #32
     342:	4330      	orrs	r0, r6
     344:	7398      	strb	r0, [r3, #14]
     346:	7b98      	ldrb	r0, [r3, #14]
     348:	43a8      	bics	r0, r5
     34a:	4304      	orrs	r4, r0
     34c:	739c      	strb	r4, [r3, #14]
     34e:	7b98      	ldrb	r0, [r3, #14]
     350:	4388      	bics	r0, r1
     352:	4302      	orrs	r2, r0
     354:	739a      	strb	r2, [r3, #14]
     356:	2380      	movs	r3, #128	; 0x80
     358:	4a11      	ldr	r2, [pc, #68]	; (3a0 <Reset_Handler+0xb0>)
     35a:	6851      	ldr	r1, [r2, #4]
     35c:	430b      	orrs	r3, r1
     35e:	6053      	str	r3, [r2, #4]
     360:	4b10      	ldr	r3, [pc, #64]	; (3a4 <Reset_Handler+0xb4>)
     362:	4798      	blx	r3
     364:	4b10      	ldr	r3, [pc, #64]	; (3a8 <Reset_Handler+0xb8>)
     366:	4798      	blx	r3
     368:	e7fe      	b.n	368 <Reset_Handler+0x78>
     36a:	58c5      	ldr	r5, [r0, r3]
     36c:	3304      	adds	r3, #4
     36e:	6015      	str	r5, [r2, #0]
     370:	e7c5      	b.n	2fe <Reset_Handler+0xe>
     372:	c302      	stmia	r3!, {r1}
     374:	e7c9      	b.n	30a <Reset_Handler+0x1a>
     376:	46c0      	nop			; (mov r8, r8)
     378:	000020a4 	.word	0x000020a4
     37c:	20000000 	.word	0x20000000
     380:	20000008 	.word	0x20000008
     384:	20000008 	.word	0x20000008
     388:	20002a18 	.word	0x20002a18
     38c:	00000000 	.word	0x00000000
     390:	e000ed00 	.word	0xe000ed00
     394:	410070fc 	.word	0x410070fc
     398:	41005000 	.word	0x41005000
     39c:	41004800 	.word	0x41004800
     3a0:	41004000 	.word	0x41004000
     3a4:	00001f99 	.word	0x00001f99
     3a8:	00000a89 	.word	0x00000a89

000003ac <USART_0_CLOCK_init>:
     3ac:	2304      	movs	r3, #4
     3ae:	4a04      	ldr	r2, [pc, #16]	; (3c0 <USART_0_CLOCK_init+0x14>)
     3b0:	6a11      	ldr	r1, [r2, #32]
     3b2:	430b      	orrs	r3, r1
     3b4:	6213      	str	r3, [r2, #32]
     3b6:	4a03      	ldr	r2, [pc, #12]	; (3c4 <USART_0_CLOCK_init+0x18>)
     3b8:	4b03      	ldr	r3, [pc, #12]	; (3c8 <USART_0_CLOCK_init+0x1c>)
     3ba:	805a      	strh	r2, [r3, #2]
     3bc:	4770      	bx	lr
     3be:	46c0      	nop			; (mov r8, r8)
     3c0:	40000400 	.word	0x40000400
     3c4:	00004014 	.word	0x00004014
     3c8:	40000c00 	.word	0x40000c00

000003cc <USART_0_PORT_init>:
     3cc:	4b0d      	ldr	r3, [pc, #52]	; (404 <USART_0_PORT_init+0x38>)
     3ce:	2201      	movs	r2, #1
     3d0:	0018      	movs	r0, r3
     3d2:	b530      	push	{r4, r5, lr}
     3d4:	304a      	adds	r0, #74	; 0x4a
     3d6:	7801      	ldrb	r1, [r0, #0]
     3d8:	240f      	movs	r4, #15
     3da:	4391      	bics	r1, r2
     3dc:	4311      	orrs	r1, r2
     3de:	7001      	strb	r1, [r0, #0]
     3e0:	0019      	movs	r1, r3
     3e2:	2002      	movs	r0, #2
     3e4:	3135      	adds	r1, #53	; 0x35
     3e6:	780d      	ldrb	r5, [r1, #0]
     3e8:	334b      	adds	r3, #75	; 0x4b
     3ea:	43a5      	bics	r5, r4
     3ec:	4328      	orrs	r0, r5
     3ee:	7008      	strb	r0, [r1, #0]
     3f0:	7818      	ldrb	r0, [r3, #0]
     3f2:	4390      	bics	r0, r2
     3f4:	4302      	orrs	r2, r0
     3f6:	701a      	strb	r2, [r3, #0]
     3f8:	780b      	ldrb	r3, [r1, #0]
     3fa:	401c      	ands	r4, r3
     3fc:	2320      	movs	r3, #32
     3fe:	4323      	orrs	r3, r4
     400:	700b      	strb	r3, [r1, #0]
     402:	bd30      	pop	{r4, r5, pc}
     404:	41004400 	.word	0x41004400

00000408 <USART_0_init>:
     408:	b513      	push	{r0, r1, r4, lr}
     40a:	4b06      	ldr	r3, [pc, #24]	; (424 <USART_0_init+0x1c>)
     40c:	4798      	blx	r3
     40e:	2300      	movs	r3, #0
     410:	4a05      	ldr	r2, [pc, #20]	; (428 <USART_0_init+0x20>)
     412:	9300      	str	r3, [sp, #0]
     414:	4905      	ldr	r1, [pc, #20]	; (42c <USART_0_init+0x24>)
     416:	3310      	adds	r3, #16
     418:	4c05      	ldr	r4, [pc, #20]	; (430 <USART_0_init+0x28>)
     41a:	4806      	ldr	r0, [pc, #24]	; (434 <USART_0_init+0x2c>)
     41c:	47a0      	blx	r4
     41e:	4b06      	ldr	r3, [pc, #24]	; (438 <USART_0_init+0x30>)
     420:	4798      	blx	r3
     422:	bd13      	pop	{r0, r1, r4, pc}
     424:	000003ad 	.word	0x000003ad
     428:	20000054 	.word	0x20000054
     42c:	42000800 	.word	0x42000800
     430:	0000068d 	.word	0x0000068d
     434:	200029a8 	.word	0x200029a8
     438:	000003cd 	.word	0x000003cd

0000043c <system_init>:
     43c:	b510      	push	{r4, lr}
     43e:	4b0a      	ldr	r3, [pc, #40]	; (468 <system_init+0x2c>)
     440:	4798      	blx	r3
     442:	4b0a      	ldr	r3, [pc, #40]	; (46c <system_init+0x30>)
     444:	4798      	blx	r3
     446:	2320      	movs	r3, #32
     448:	4a09      	ldr	r2, [pc, #36]	; (470 <system_init+0x34>)
     44a:	6991      	ldr	r1, [r2, #24]
     44c:	430b      	orrs	r3, r1
     44e:	6193      	str	r3, [r2, #24]
     450:	4a08      	ldr	r2, [pc, #32]	; (474 <system_init+0x38>)
     452:	4b09      	ldr	r3, [pc, #36]	; (478 <system_init+0x3c>)
     454:	805a      	strh	r2, [r3, #2]
     456:	4b09      	ldr	r3, [pc, #36]	; (47c <system_init+0x40>)
     458:	4798      	blx	r3
     45a:	4909      	ldr	r1, [pc, #36]	; (480 <system_init+0x44>)
     45c:	0002      	movs	r2, r0
     45e:	4b09      	ldr	r3, [pc, #36]	; (484 <system_init+0x48>)
     460:	4809      	ldr	r0, [pc, #36]	; (488 <system_init+0x4c>)
     462:	4798      	blx	r3
     464:	bd10      	pop	{r4, pc}
     466:	46c0      	nop			; (mov r8, r8)
     468:	00000789 	.word	0x00000789
     46c:	00000409 	.word	0x00000409
     470:	40000400 	.word	0x40000400
     474:	00004004 	.word	0x00004004
     478:	40000c00 	.word	0x40000c00
     47c:	0000083d 	.word	0x0000083d
     480:	40001400 	.word	0x40001400
     484:	00000569 	.word	0x00000569
     488:	200029f8 	.word	0x200029f8

0000048c <atomic_enter_critical>:
     48c:	f3ef 8310 	mrs	r3, PRIMASK
     490:	6003      	str	r3, [r0, #0]
     492:	b672      	cpsid	i
     494:	f3bf 8f5f 	dmb	sy
     498:	4770      	bx	lr

0000049a <atomic_leave_critical>:
     49a:	f3bf 8f5f 	dmb	sy
     49e:	6803      	ldr	r3, [r0, #0]
     4a0:	f383 8810 	msr	PRIMASK, r3
     4a4:	4770      	bx	lr

000004a6 <io_write>:
     4a6:	b510      	push	{r4, lr}
     4a8:	6803      	ldr	r3, [r0, #0]
     4aa:	4798      	blx	r3
     4ac:	bd10      	pop	{r4, pc}
	...

000004b0 <timer_add_timer_task>:
     4b0:	b5f7      	push	{r0, r1, r2, r4, r5, r6, r7, lr}
     4b2:	6805      	ldr	r5, [r0, #0]
     4b4:	2d00      	cmp	r5, #0
     4b6:	d102      	bne.n	4be <timer_add_timer_task+0xe>
     4b8:	4b11      	ldr	r3, [pc, #68]	; (500 <timer_add_timer_task+0x50>)
     4ba:	4798      	blx	r3
     4bc:	bdf7      	pop	{r0, r1, r2, r4, r5, r6, r7, pc}
     4be:	2601      	movs	r6, #1
     4c0:	002c      	movs	r4, r5
     4c2:	2700      	movs	r7, #0
     4c4:	688b      	ldr	r3, [r1, #8]
     4c6:	9300      	str	r3, [sp, #0]
     4c8:	1ab3      	subs	r3, r6, r2
     4ca:	9301      	str	r3, [sp, #4]
     4cc:	68a6      	ldr	r6, [r4, #8]
     4ce:	6863      	ldr	r3, [r4, #4]
     4d0:	46b4      	mov	ip, r6
     4d2:	4293      	cmp	r3, r2
     4d4:	d80d      	bhi.n	4f2 <timer_add_timer_task+0x42>
     4d6:	4463      	add	r3, ip
     4d8:	1a9b      	subs	r3, r3, r2
     4da:	9e00      	ldr	r6, [sp, #0]
     4dc:	42b3      	cmp	r3, r6
     4de:	d20c      	bcs.n	4fa <timer_add_timer_task+0x4a>
     4e0:	6823      	ldr	r3, [r4, #0]
     4e2:	0027      	movs	r7, r4
     4e4:	2b00      	cmp	r3, #0
     4e6:	d102      	bne.n	4ee <timer_add_timer_task+0x3e>
     4e8:	0038      	movs	r0, r7
     4ea:	4b06      	ldr	r3, [pc, #24]	; (504 <timer_add_timer_task+0x54>)
     4ec:	e7e5      	b.n	4ba <timer_add_timer_task+0xa>
     4ee:	001c      	movs	r4, r3
     4f0:	e7ec      	b.n	4cc <timer_add_timer_task+0x1c>
     4f2:	9e01      	ldr	r6, [sp, #4]
     4f4:	18f3      	adds	r3, r6, r3
     4f6:	4463      	add	r3, ip
     4f8:	e7ef      	b.n	4da <timer_add_timer_task+0x2a>
     4fa:	42a5      	cmp	r5, r4
     4fc:	d1f4      	bne.n	4e8 <timer_add_timer_task+0x38>
     4fe:	e7db      	b.n	4b8 <timer_add_timer_task+0x8>
     500:	00000707 	.word	0x00000707
     504:	0000070f 	.word	0x0000070f

00000508 <timer_process_counted>:
     508:	b5f8      	push	{r3, r4, r5, r6, r7, lr}
     50a:	6903      	ldr	r3, [r0, #16]
     50c:	0005      	movs	r5, r0
     50e:	1c5e      	adds	r6, r3, #1
     510:	7e03      	ldrb	r3, [r0, #24]
     512:	6944      	ldr	r4, [r0, #20]
     514:	6106      	str	r6, [r0, #16]
     516:	07db      	lsls	r3, r3, #31
     518:	d402      	bmi.n	520 <timer_process_counted+0x18>
     51a:	7e03      	ldrb	r3, [r0, #24]
     51c:	079b      	lsls	r3, r3, #30
     51e:	d517      	bpl.n	550 <timer_process_counted+0x48>
     520:	2302      	movs	r3, #2
     522:	7e2a      	ldrb	r2, [r5, #24]
     524:	4313      	orrs	r3, r2
     526:	762b      	strb	r3, [r5, #24]
     528:	bdf8      	pop	{r3, r4, r5, r6, r7, pc}
     52a:	002f      	movs	r7, r5
     52c:	3714      	adds	r7, #20
     52e:	4b0c      	ldr	r3, [pc, #48]	; (560 <timer_process_counted+0x58>)
     530:	0038      	movs	r0, r7
     532:	4798      	blx	r3
     534:	7c23      	ldrb	r3, [r4, #16]
     536:	2b01      	cmp	r3, #1
     538:	d105      	bne.n	546 <timer_process_counted+0x3e>
     53a:	6066      	str	r6, [r4, #4]
     53c:	0032      	movs	r2, r6
     53e:	0021      	movs	r1, r4
     540:	0038      	movs	r0, r7
     542:	4b08      	ldr	r3, [pc, #32]	; (564 <timer_process_counted+0x5c>)
     544:	4798      	blx	r3
     546:	696f      	ldr	r7, [r5, #20]
     548:	68e3      	ldr	r3, [r4, #12]
     54a:	0020      	movs	r0, r4
     54c:	4798      	blx	r3
     54e:	003c      	movs	r4, r7
     550:	2c00      	cmp	r4, #0
     552:	d0e9      	beq.n	528 <timer_process_counted+0x20>
     554:	6863      	ldr	r3, [r4, #4]
     556:	68a2      	ldr	r2, [r4, #8]
     558:	1af3      	subs	r3, r6, r3
     55a:	4293      	cmp	r3, r2
     55c:	d2e5      	bcs.n	52a <timer_process_counted+0x22>
     55e:	e7e3      	b.n	528 <timer_process_counted+0x20>
     560:	00000717 	.word	0x00000717
     564:	000004b1 	.word	0x000004b1

00000568 <timer_init>:
     568:	b510      	push	{r4, lr}
     56a:	4b04      	ldr	r3, [pc, #16]	; (57c <timer_init+0x14>)
     56c:	0004      	movs	r4, r0
     56e:	4798      	blx	r3
     570:	2000      	movs	r0, #0
     572:	4b03      	ldr	r3, [pc, #12]	; (580 <timer_init+0x18>)
     574:	6120      	str	r0, [r4, #16]
     576:	6023      	str	r3, [r4, #0]
     578:	bd10      	pop	{r4, pc}
     57a:	46c0      	nop			; (mov r8, r8)
     57c:	00000801 	.word	0x00000801
     580:	00000509 	.word	0x00000509

00000584 <usart_transmission_complete>:
     584:	2300      	movs	r3, #0
     586:	3808      	subs	r0, #8
     588:	b510      	push	{r4, lr}
     58a:	6303      	str	r3, [r0, #48]	; 0x30
     58c:	6a43      	ldr	r3, [r0, #36]	; 0x24
     58e:	2b00      	cmp	r3, #0
     590:	d000      	beq.n	594 <usart_transmission_complete+0x10>
     592:	4798      	blx	r3
     594:	bd10      	pop	{r4, pc}

00000596 <usart_error>:
     596:	2300      	movs	r3, #0
     598:	3808      	subs	r0, #8
     59a:	b510      	push	{r4, lr}
     59c:	6303      	str	r3, [r0, #48]	; 0x30
     59e:	6ac3      	ldr	r3, [r0, #44]	; 0x2c
     5a0:	2b00      	cmp	r3, #0
     5a2:	d000      	beq.n	5a6 <usart_error+0x10>
     5a4:	4798      	blx	r3
     5a6:	bd10      	pop	{r4, pc}

000005a8 <usart_fill_rx_buffer>:
     5a8:	b510      	push	{r4, lr}
     5aa:	0004      	movs	r4, r0
     5ac:	4b04      	ldr	r3, [pc, #16]	; (5c0 <usart_fill_rx_buffer+0x18>)
     5ae:	302c      	adds	r0, #44	; 0x2c
     5b0:	4798      	blx	r3
     5b2:	6a23      	ldr	r3, [r4, #32]
     5b4:	3c08      	subs	r4, #8
     5b6:	2b00      	cmp	r3, #0
     5b8:	d001      	beq.n	5be <usart_fill_rx_buffer+0x16>
     5ba:	0020      	movs	r0, r4
     5bc:	4798      	blx	r3
     5be:	bd10      	pop	{r4, pc}
     5c0:	0000075f 	.word	0x0000075f

000005c4 <usart_async_write>:
     5c4:	b570      	push	{r4, r5, r6, lr}
     5c6:	0014      	movs	r4, r2
     5c8:	0002      	movs	r2, r0
     5ca:	1d83      	adds	r3, r0, #6
     5cc:	324c      	adds	r2, #76	; 0x4c
     5ce:	8fde      	ldrh	r6, [r3, #62]	; 0x3e
     5d0:	8815      	ldrh	r5, [r2, #0]
     5d2:	42ae      	cmp	r6, r5
     5d4:	d10a      	bne.n	5ec <usart_async_write+0x28>
     5d6:	6481      	str	r1, [r0, #72]	; 0x48
     5d8:	8014      	strh	r4, [r2, #0]
     5da:	2200      	movs	r2, #0
     5dc:	87da      	strh	r2, [r3, #62]	; 0x3e
     5de:	2301      	movs	r3, #1
     5e0:	3008      	adds	r0, #8
     5e2:	6283      	str	r3, [r0, #40]	; 0x28
     5e4:	4b03      	ldr	r3, [pc, #12]	; (5f4 <usart_async_write+0x30>)
     5e6:	4798      	blx	r3
     5e8:	0020      	movs	r0, r4
     5ea:	bd70      	pop	{r4, r5, r6, pc}
     5ec:	201c      	movs	r0, #28
     5ee:	4240      	negs	r0, r0
     5f0:	e7fb      	b.n	5ea <usart_async_write+0x26>
     5f2:	46c0      	nop			; (mov r8, r8)
     5f4:	000009b9 	.word	0x000009b9

000005f8 <usart_process_byte_sent>:
     5f8:	0001      	movs	r1, r0
     5fa:	b510      	push	{r4, lr}
     5fc:	0004      	movs	r4, r0
     5fe:	8f83      	ldrh	r3, [r0, #60]	; 0x3c
     600:	3044      	adds	r0, #68	; 0x44
     602:	8800      	ldrh	r0, [r0, #0]
     604:	3908      	subs	r1, #8
     606:	4298      	cmp	r0, r3
     608:	d00a      	beq.n	620 <usart_process_byte_sent+0x28>
     60a:	6c89      	ldr	r1, [r1, #72]	; 0x48
     60c:	1c58      	adds	r0, r3, #1
     60e:	87a0      	strh	r0, [r4, #60]	; 0x3c
     610:	5cc9      	ldrb	r1, [r1, r3]
     612:	0020      	movs	r0, r4
     614:	4b04      	ldr	r3, [pc, #16]	; (628 <usart_process_byte_sent+0x30>)
     616:	4798      	blx	r3
     618:	0020      	movs	r0, r4
     61a:	4b04      	ldr	r3, [pc, #16]	; (62c <usart_process_byte_sent+0x34>)
     61c:	4798      	blx	r3
     61e:	bd10      	pop	{r4, pc}
     620:	0020      	movs	r0, r4
     622:	4b03      	ldr	r3, [pc, #12]	; (630 <usart_process_byte_sent+0x38>)
     624:	e7fa      	b.n	61c <usart_process_byte_sent+0x24>
     626:	46c0      	nop			; (mov r8, r8)
     628:	000009b1 	.word	0x000009b1
     62c:	000009b9 	.word	0x000009b9
     630:	000009c1 	.word	0x000009c1

00000634 <usart_async_read>:
     634:	b5f0      	push	{r4, r5, r6, r7, lr}
     636:	0005      	movs	r5, r0
     638:	b085      	sub	sp, #20
     63a:	a803      	add	r0, sp, #12
     63c:	4b0f      	ldr	r3, [pc, #60]	; (67c <usart_async_read+0x48>)
     63e:	3534      	adds	r5, #52	; 0x34
     640:	000e      	movs	r6, r1
     642:	0014      	movs	r4, r2
     644:	4798      	blx	r3
     646:	4b0e      	ldr	r3, [pc, #56]	; (680 <usart_async_read+0x4c>)
     648:	0028      	movs	r0, r5
     64a:	4798      	blx	r3
     64c:	4b0d      	ldr	r3, [pc, #52]	; (684 <usart_async_read+0x50>)
     64e:	0007      	movs	r7, r0
     650:	a803      	add	r0, sp, #12
     652:	4798      	blx	r3
     654:	1933      	adds	r3, r6, r4
     656:	0034      	movs	r4, r6
     658:	19f7      	adds	r7, r6, r7
     65a:	9301      	str	r3, [sp, #4]
     65c:	1ba0      	subs	r0, r4, r6
     65e:	b280      	uxth	r0, r0
     660:	42bc      	cmp	r4, r7
     662:	d002      	beq.n	66a <usart_async_read+0x36>
     664:	9b01      	ldr	r3, [sp, #4]
     666:	429c      	cmp	r4, r3
     668:	d101      	bne.n	66e <usart_async_read+0x3a>
     66a:	b005      	add	sp, #20
     66c:	bdf0      	pop	{r4, r5, r6, r7, pc}
     66e:	0021      	movs	r1, r4
     670:	0028      	movs	r0, r5
     672:	4b05      	ldr	r3, [pc, #20]	; (688 <usart_async_read+0x54>)
     674:	4798      	blx	r3
     676:	3401      	adds	r4, #1
     678:	e7f0      	b.n	65c <usart_async_read+0x28>
     67a:	46c0      	nop			; (mov r8, r8)
     67c:	0000048d 	.word	0x0000048d
     680:	00000781 	.word	0x00000781
     684:	0000049b 	.word	0x0000049b
     688:	0000073d 	.word	0x0000073d

0000068c <usart_async_init>:
     68c:	b570      	push	{r4, r5, r6, lr}
     68e:	0004      	movs	r4, r0
     690:	000d      	movs	r5, r1
     692:	3034      	adds	r0, #52	; 0x34
     694:	0011      	movs	r1, r2
     696:	001a      	movs	r2, r3
     698:	4b0d      	ldr	r3, [pc, #52]	; (6d0 <usart_async_init+0x44>)
     69a:	4798      	blx	r3
     69c:	2800      	cmp	r0, #0
     69e:	d113      	bne.n	6c8 <usart_async_init+0x3c>
     6a0:	0020      	movs	r0, r4
     6a2:	0029      	movs	r1, r5
     6a4:	3008      	adds	r0, #8
     6a6:	4b0b      	ldr	r3, [pc, #44]	; (6d4 <usart_async_init+0x48>)
     6a8:	4798      	blx	r3
     6aa:	2800      	cmp	r0, #0
     6ac:	d10b      	bne.n	6c6 <usart_async_init+0x3a>
     6ae:	4b0a      	ldr	r3, [pc, #40]	; (6d8 <usart_async_init+0x4c>)
     6b0:	6063      	str	r3, [r4, #4]
     6b2:	4b0a      	ldr	r3, [pc, #40]	; (6dc <usart_async_init+0x50>)
     6b4:	6023      	str	r3, [r4, #0]
     6b6:	4b0a      	ldr	r3, [pc, #40]	; (6e0 <usart_async_init+0x54>)
     6b8:	60a3      	str	r3, [r4, #8]
     6ba:	4b0a      	ldr	r3, [pc, #40]	; (6e4 <usart_async_init+0x58>)
     6bc:	60e3      	str	r3, [r4, #12]
     6be:	4b0a      	ldr	r3, [pc, #40]	; (6e8 <usart_async_init+0x5c>)
     6c0:	6123      	str	r3, [r4, #16]
     6c2:	4b0a      	ldr	r3, [pc, #40]	; (6ec <usart_async_init+0x60>)
     6c4:	6163      	str	r3, [r4, #20]
     6c6:	bd70      	pop	{r4, r5, r6, pc}
     6c8:	200d      	movs	r0, #13
     6ca:	4240      	negs	r0, r0
     6cc:	e7fb      	b.n	6c6 <usart_async_init+0x3a>
     6ce:	46c0      	nop			; (mov r8, r8)
     6d0:	00000725 	.word	0x00000725
     6d4:	00000941 	.word	0x00000941
     6d8:	00000635 	.word	0x00000635
     6dc:	000005c5 	.word	0x000005c5
     6e0:	000005f9 	.word	0x000005f9
     6e4:	000005a9 	.word	0x000005a9
     6e8:	00000585 	.word	0x00000585
     6ec:	00000597 	.word	0x00000597

000006f0 <usart_async_enable>:
     6f0:	b510      	push	{r4, lr}
     6f2:	3008      	adds	r0, #8
     6f4:	4b01      	ldr	r3, [pc, #4]	; (6fc <usart_async_enable+0xc>)
     6f6:	4798      	blx	r3
     6f8:	2000      	movs	r0, #0
     6fa:	bd10      	pop	{r4, pc}
     6fc:	00000999 	.word	0x00000999

00000700 <usart_async_get_io_descriptor>:
     700:	6008      	str	r0, [r1, #0]
     702:	2000      	movs	r0, #0
     704:	4770      	bx	lr

00000706 <list_insert_as_head>:
     706:	6803      	ldr	r3, [r0, #0]
     708:	600b      	str	r3, [r1, #0]
     70a:	6001      	str	r1, [r0, #0]
     70c:	4770      	bx	lr

0000070e <list_insert_after>:
     70e:	6803      	ldr	r3, [r0, #0]
     710:	600b      	str	r3, [r1, #0]
     712:	6001      	str	r1, [r0, #0]
     714:	4770      	bx	lr

00000716 <list_remove_head>:
     716:	6803      	ldr	r3, [r0, #0]
     718:	2b00      	cmp	r3, #0
     71a:	d001      	beq.n	720 <list_remove_head+0xa>
     71c:	681a      	ldr	r2, [r3, #0]
     71e:	6002      	str	r2, [r0, #0]
     720:	0018      	movs	r0, r3
     722:	4770      	bx	lr

00000724 <ringbuffer_init>:
     724:	1e53      	subs	r3, r2, #1
     726:	401a      	ands	r2, r3
     728:	d105      	bne.n	736 <ringbuffer_init+0x12>
     72a:	6043      	str	r3, [r0, #4]
     72c:	6082      	str	r2, [r0, #8]
     72e:	60c2      	str	r2, [r0, #12]
     730:	6001      	str	r1, [r0, #0]
     732:	0010      	movs	r0, r2
     734:	4770      	bx	lr
     736:	200d      	movs	r0, #13
     738:	4240      	negs	r0, r0
     73a:	e7fb      	b.n	734 <ringbuffer_init+0x10>

0000073c <ringbuffer_get>:
     73c:	6883      	ldr	r3, [r0, #8]
     73e:	68c2      	ldr	r2, [r0, #12]
     740:	429a      	cmp	r2, r3
     742:	d009      	beq.n	758 <ringbuffer_get+0x1c>
     744:	6842      	ldr	r2, [r0, #4]
     746:	4013      	ands	r3, r2
     748:	6802      	ldr	r2, [r0, #0]
     74a:	5cd3      	ldrb	r3, [r2, r3]
     74c:	700b      	strb	r3, [r1, #0]
     74e:	6883      	ldr	r3, [r0, #8]
     750:	3301      	adds	r3, #1
     752:	6083      	str	r3, [r0, #8]
     754:	2000      	movs	r0, #0
     756:	4770      	bx	lr
     758:	200a      	movs	r0, #10
     75a:	4240      	negs	r0, r0
     75c:	e7fb      	b.n	756 <ringbuffer_get+0x1a>

0000075e <ringbuffer_put>:
     75e:	68c2      	ldr	r2, [r0, #12]
     760:	6843      	ldr	r3, [r0, #4]
     762:	4013      	ands	r3, r2
     764:	6802      	ldr	r2, [r0, #0]
     766:	54d1      	strb	r1, [r2, r3]
     768:	68c3      	ldr	r3, [r0, #12]
     76a:	6881      	ldr	r1, [r0, #8]
     76c:	6842      	ldr	r2, [r0, #4]
     76e:	1a59      	subs	r1, r3, r1
     770:	4291      	cmp	r1, r2
     772:	d901      	bls.n	778 <ringbuffer_put+0x1a>
     774:	1a9a      	subs	r2, r3, r2
     776:	6082      	str	r2, [r0, #8]
     778:	3301      	adds	r3, #1
     77a:	60c3      	str	r3, [r0, #12]
     77c:	2000      	movs	r0, #0
     77e:	4770      	bx	lr

00000780 <ringbuffer_num>:
     780:	68c3      	ldr	r3, [r0, #12]
     782:	6880      	ldr	r0, [r0, #8]
     784:	1a18      	subs	r0, r3, r0
     786:	4770      	bx	lr

00000788 <_init_chip>:
     788:	b510      	push	{r4, lr}
     78a:	4b06      	ldr	r3, [pc, #24]	; (7a4 <_init_chip+0x1c>)
     78c:	685a      	ldr	r2, [r3, #4]
     78e:	605a      	str	r2, [r3, #4]
     790:	4b05      	ldr	r3, [pc, #20]	; (7a8 <_init_chip+0x20>)
     792:	4798      	blx	r3
     794:	4b05      	ldr	r3, [pc, #20]	; (7ac <_init_chip+0x24>)
     796:	4798      	blx	r3
     798:	4b05      	ldr	r3, [pc, #20]	; (7b0 <_init_chip+0x28>)
     79a:	4798      	blx	r3
     79c:	20ff      	movs	r0, #255	; 0xff
     79e:	4b05      	ldr	r3, [pc, #20]	; (7b4 <_init_chip+0x2c>)
     7a0:	4798      	blx	r3
     7a2:	bd10      	pop	{r4, pc}
     7a4:	41004000 	.word	0x41004000
     7a8:	000007d9 	.word	0x000007d9
     7ac:	00000a35 	.word	0x00000a35
     7b0:	00000a79 	.word	0x00000a79
     7b4:	000007b9 	.word	0x000007b9

000007b8 <_gclk_init_generators_by_fref>:
     7b8:	07c3      	lsls	r3, r0, #31
     7ba:	d509      	bpl.n	7d0 <_gclk_init_generators_by_fref+0x18>
     7bc:	2280      	movs	r2, #128	; 0x80
     7be:	4b05      	ldr	r3, [pc, #20]	; (7d4 <_gclk_init_generators_by_fref+0x1c>)
     7c0:	0052      	lsls	r2, r2, #1
     7c2:	609a      	str	r2, [r3, #8]
     7c4:	2283      	movs	r2, #131	; 0x83
     7c6:	0252      	lsls	r2, r2, #9
     7c8:	605a      	str	r2, [r3, #4]
     7ca:	785a      	ldrb	r2, [r3, #1]
     7cc:	09d2      	lsrs	r2, r2, #7
     7ce:	d1fc      	bne.n	7ca <_gclk_init_generators_by_fref+0x12>
     7d0:	4770      	bx	lr
     7d2:	46c0      	nop			; (mov r8, r8)
     7d4:	40000c00 	.word	0x40000c00

000007d8 <_pm_init>:
     7d8:	4b06      	ldr	r3, [pc, #24]	; (7f4 <_pm_init+0x1c>)
     7da:	7a1a      	ldrb	r2, [r3, #8]
     7dc:	b2d2      	uxtb	r2, r2
     7de:	721a      	strb	r2, [r3, #8]
     7e0:	7a5a      	ldrb	r2, [r3, #9]
     7e2:	b2d2      	uxtb	r2, r2
     7e4:	725a      	strb	r2, [r3, #9]
     7e6:	7a9a      	ldrb	r2, [r3, #10]
     7e8:	b2d2      	uxtb	r2, r2
     7ea:	729a      	strb	r2, [r3, #10]
     7ec:	7ada      	ldrb	r2, [r3, #11]
     7ee:	b2d2      	uxtb	r2, r2
     7f0:	72da      	strb	r2, [r3, #11]
     7f2:	4770      	bx	lr
     7f4:	40000400 	.word	0x40000400

000007f8 <hri_rtc_wait_for_sync>:
     7f8:	7a83      	ldrb	r3, [r0, #10]
     7fa:	09db      	lsrs	r3, r3, #7
     7fc:	d1fc      	bne.n	7f8 <hri_rtc_wait_for_sync>
     7fe:	4770      	bx	lr

00000800 <_timer_init>:
     800:	b570      	push	{r4, r5, r6, lr}
     802:	2601      	movs	r6, #1
     804:	0004      	movs	r4, r0
     806:	60c1      	str	r1, [r0, #12]
     808:	4d0a      	ldr	r5, [pc, #40]	; (834 <_timer_init+0x34>)
     80a:	800e      	strh	r6, [r1, #0]
     80c:	0008      	movs	r0, r1
     80e:	47a8      	blx	r5
     810:	68e0      	ldr	r0, [r4, #12]
     812:	47a8      	blx	r5
     814:	2380      	movs	r3, #128	; 0x80
     816:	68e0      	ldr	r0, [r4, #12]
     818:	8003      	strh	r3, [r0, #0]
     81a:	47a8      	blx	r5
     81c:	68e0      	ldr	r0, [r4, #12]
     81e:	6983      	ldr	r3, [r0, #24]
     820:	2380      	movs	r3, #128	; 0x80
     822:	00db      	lsls	r3, r3, #3
     824:	6183      	str	r3, [r0, #24]
     826:	47a8      	blx	r5
     828:	68e3      	ldr	r3, [r4, #12]
     82a:	2000      	movs	r0, #0
     82c:	71de      	strb	r6, [r3, #7]
     82e:	4b02      	ldr	r3, [pc, #8]	; (838 <_timer_init+0x38>)
     830:	601c      	str	r4, [r3, #0]
     832:	bd70      	pop	{r4, r5, r6, pc}
     834:	000007f9 	.word	0x000007f9
     838:	20000064 	.word	0x20000064

0000083c <_rtc_get_timer>:
     83c:	2000      	movs	r0, #0
     83e:	4770      	bx	lr

00000840 <RTC_Handler>:
     840:	b570      	push	{r4, r5, r6, lr}
     842:	2501      	movs	r5, #1
     844:	4b06      	ldr	r3, [pc, #24]	; (860 <RTC_Handler+0x20>)
     846:	681c      	ldr	r4, [r3, #0]
     848:	68e3      	ldr	r3, [r4, #12]
     84a:	7a1b      	ldrb	r3, [r3, #8]
     84c:	422b      	tst	r3, r5
     84e:	d006      	beq.n	85e <RTC_Handler+0x1e>
     850:	6823      	ldr	r3, [r4, #0]
     852:	2b00      	cmp	r3, #0
     854:	d001      	beq.n	85a <RTC_Handler+0x1a>
     856:	0020      	movs	r0, r4
     858:	4798      	blx	r3
     85a:	68e3      	ldr	r3, [r4, #12]
     85c:	721d      	strb	r5, [r3, #8]
     85e:	bd70      	pop	{r4, r5, r6, pc}
     860:	20000064 	.word	0x20000064

00000864 <__NVIC_EnableIRQ>:
     864:	2800      	cmp	r0, #0
     866:	db05      	blt.n	874 <__NVIC_EnableIRQ+0x10>
     868:	231f      	movs	r3, #31
     86a:	4018      	ands	r0, r3
     86c:	3b1e      	subs	r3, #30
     86e:	4083      	lsls	r3, r0
     870:	4a01      	ldr	r2, [pc, #4]	; (878 <__NVIC_EnableIRQ+0x14>)
     872:	6013      	str	r3, [r2, #0]
     874:	4770      	bx	lr
     876:	46c0      	nop			; (mov r8, r8)
     878:	e000e100 	.word	0xe000e100

0000087c <__NVIC_DisableIRQ>:
     87c:	2800      	cmp	r0, #0
     87e:	db09      	blt.n	894 <__NVIC_DisableIRQ+0x18>
     880:	231f      	movs	r3, #31
     882:	4018      	ands	r0, r3
     884:	3b1e      	subs	r3, #30
     886:	4083      	lsls	r3, r0
     888:	4a03      	ldr	r2, [pc, #12]	; (898 <__NVIC_DisableIRQ+0x1c>)
     88a:	67d3      	str	r3, [r2, #124]	; 0x7c
     88c:	f3bf 8f4f 	dsb	sy
     890:	f3bf 8f6f 	isb	sy
     894:	4770      	bx	lr
     896:	46c0      	nop			; (mov r8, r8)
     898:	e000e104 	.word	0xe000e104

0000089c <__NVIC_ClearPendingIRQ>:
     89c:	2800      	cmp	r0, #0
     89e:	db07      	blt.n	8b0 <__NVIC_ClearPendingIRQ+0x14>
     8a0:	231f      	movs	r3, #31
     8a2:	22c0      	movs	r2, #192	; 0xc0
     8a4:	4018      	ands	r0, r3
     8a6:	3b1e      	subs	r3, #30
     8a8:	4083      	lsls	r3, r0
     8aa:	4902      	ldr	r1, [pc, #8]	; (8b4 <__NVIC_ClearPendingIRQ+0x18>)
     8ac:	0052      	lsls	r2, r2, #1
     8ae:	508b      	str	r3, [r1, r2]
     8b0:	4770      	bx	lr
     8b2:	46c0      	nop			; (mov r8, r8)
     8b4:	e000e100 	.word	0xe000e100

000008b8 <hri_sercomusart_wait_for_sync>:
     8b8:	69c3      	ldr	r3, [r0, #28]
     8ba:	4219      	tst	r1, r3
     8bc:	d1fc      	bne.n	8b8 <hri_sercomusart_wait_for_sync>
     8be:	4770      	bx	lr

000008c0 <hri_sercomusart_clear_CTRLA_ENABLE_bit>:
     8c0:	2202      	movs	r2, #2
     8c2:	b510      	push	{r4, lr}
     8c4:	6803      	ldr	r3, [r0, #0]
     8c6:	2103      	movs	r1, #3
     8c8:	4393      	bics	r3, r2
     8ca:	6003      	str	r3, [r0, #0]
     8cc:	4b01      	ldr	r3, [pc, #4]	; (8d4 <hri_sercomusart_clear_CTRLA_ENABLE_bit+0x14>)
     8ce:	4798      	blx	r3
     8d0:	bd10      	pop	{r4, pc}
     8d2:	46c0      	nop			; (mov r8, r8)
     8d4:	000008b9 	.word	0x000008b9

000008d8 <_usart_init>:
     8d8:	b570      	push	{r4, r5, r6, lr}
     8da:	69c3      	ldr	r3, [r0, #28]
     8dc:	0004      	movs	r4, r0
     8de:	4d14      	ldr	r5, [pc, #80]	; (930 <_usart_init+0x58>)
     8e0:	07db      	lsls	r3, r3, #31
     8e2:	d410      	bmi.n	906 <_usart_init+0x2e>
     8e4:	2602      	movs	r6, #2
     8e6:	2103      	movs	r1, #3
     8e8:	47a8      	blx	r5
     8ea:	6823      	ldr	r3, [r4, #0]
     8ec:	4233      	tst	r3, r6
     8ee:	d005      	beq.n	8fc <_usart_init+0x24>
     8f0:	0020      	movs	r0, r4
     8f2:	4b10      	ldr	r3, [pc, #64]	; (934 <_usart_init+0x5c>)
     8f4:	4798      	blx	r3
     8f6:	0031      	movs	r1, r6
     8f8:	0020      	movs	r0, r4
     8fa:	47a8      	blx	r5
     8fc:	2305      	movs	r3, #5
     8fe:	2103      	movs	r1, #3
     900:	6023      	str	r3, [r4, #0]
     902:	0020      	movs	r0, r4
     904:	47a8      	blx	r5
     906:	0020      	movs	r0, r4
     908:	2101      	movs	r1, #1
     90a:	47a8      	blx	r5
     90c:	4b0a      	ldr	r3, [pc, #40]	; (938 <_usart_init+0x60>)
     90e:	0020      	movs	r0, r4
     910:	6023      	str	r3, [r4, #0]
     912:	2103      	movs	r1, #3
     914:	47a8      	blx	r5
     916:	23c0      	movs	r3, #192	; 0xc0
     918:	029b      	lsls	r3, r3, #10
     91a:	6063      	str	r3, [r4, #4]
     91c:	0020      	movs	r0, r4
     91e:	2107      	movs	r1, #7
     920:	47a8      	blx	r5
     922:	2000      	movs	r0, #0
     924:	4b05      	ldr	r3, [pc, #20]	; (93c <_usart_init+0x64>)
     926:	81a3      	strh	r3, [r4, #12]
     928:	73a0      	strb	r0, [r4, #14]
     92a:	3430      	adds	r4, #48	; 0x30
     92c:	7020      	strb	r0, [r4, #0]
     92e:	bd70      	pop	{r4, r5, r6, pc}
     930:	000008b9 	.word	0x000008b9
     934:	000008c1 	.word	0x000008c1
     938:	40310004 	.word	0x40310004
     93c:	ffffd8ad 	.word	0xffffd8ad

00000940 <_usart_async_init>:
     940:	b570      	push	{r4, r5, r6, lr}
     942:	4b0e      	ldr	r3, [pc, #56]	; (97c <_usart_async_init+0x3c>)
     944:	0006      	movs	r6, r0
     946:	0008      	movs	r0, r1
     948:	000c      	movs	r4, r1
     94a:	4798      	blx	r3
     94c:	1e05      	subs	r5, r0, #0
     94e:	d113      	bne.n	978 <_usart_async_init+0x38>
     950:	4b0b      	ldr	r3, [pc, #44]	; (980 <_usart_async_init+0x40>)
     952:	61b4      	str	r4, [r6, #24]
     954:	429c      	cmp	r4, r3
     956:	d101      	bne.n	95c <_usart_async_init+0x1c>
     958:	4b0a      	ldr	r3, [pc, #40]	; (984 <_usart_async_init+0x44>)
     95a:	601e      	str	r6, [r3, #0]
     95c:	4b0a      	ldr	r3, [pc, #40]	; (988 <_usart_async_init+0x48>)
     95e:	18e4      	adds	r4, r4, r3
     960:	0aa4      	lsrs	r4, r4, #10
     962:	3409      	adds	r4, #9
     964:	b264      	sxtb	r4, r4
     966:	0020      	movs	r0, r4
     968:	4b08      	ldr	r3, [pc, #32]	; (98c <_usart_async_init+0x4c>)
     96a:	4798      	blx	r3
     96c:	0020      	movs	r0, r4
     96e:	4b08      	ldr	r3, [pc, #32]	; (990 <_usart_async_init+0x50>)
     970:	4798      	blx	r3
     972:	0020      	movs	r0, r4
     974:	4b07      	ldr	r3, [pc, #28]	; (994 <_usart_async_init+0x54>)
     976:	4798      	blx	r3
     978:	0028      	movs	r0, r5
     97a:	bd70      	pop	{r4, r5, r6, pc}
     97c:	000008d9 	.word	0x000008d9
     980:	42000800 	.word	0x42000800
     984:	20000068 	.word	0x20000068
     988:	bdfff800 	.word	0xbdfff800
     98c:	0000087d 	.word	0x0000087d
     990:	0000089d 	.word	0x0000089d
     994:	00000865 	.word	0x00000865

00000998 <_usart_async_enable>:
     998:	2302      	movs	r3, #2
     99a:	b510      	push	{r4, lr}
     99c:	6980      	ldr	r0, [r0, #24]
     99e:	2103      	movs	r1, #3
     9a0:	6802      	ldr	r2, [r0, #0]
     9a2:	4313      	orrs	r3, r2
     9a4:	6003      	str	r3, [r0, #0]
     9a6:	4b01      	ldr	r3, [pc, #4]	; (9ac <_usart_async_enable+0x14>)
     9a8:	4798      	blx	r3
     9aa:	bd10      	pop	{r4, pc}
     9ac:	000008b9 	.word	0x000008b9

000009b0 <_usart_async_write_byte>:
     9b0:	6983      	ldr	r3, [r0, #24]
     9b2:	b289      	uxth	r1, r1
     9b4:	8519      	strh	r1, [r3, #40]	; 0x28
     9b6:	4770      	bx	lr

000009b8 <_usart_async_enable_byte_sent_irq>:
     9b8:	2201      	movs	r2, #1
     9ba:	6983      	ldr	r3, [r0, #24]
     9bc:	759a      	strb	r2, [r3, #22]
     9be:	4770      	bx	lr

000009c0 <_usart_async_enable_tx_done_irq>:
     9c0:	2202      	movs	r2, #2
     9c2:	6983      	ldr	r3, [r0, #24]
     9c4:	759a      	strb	r2, [r3, #22]
     9c6:	4770      	bx	lr

000009c8 <SERCOM0_Handler>:
     9c8:	4b19      	ldr	r3, [pc, #100]	; (a30 <SERCOM0_Handler+0x68>)
     9ca:	b510      	push	{r4, lr}
     9cc:	6818      	ldr	r0, [r3, #0]
     9ce:	2301      	movs	r3, #1
     9d0:	6984      	ldr	r4, [r0, #24]
     9d2:	7e22      	ldrb	r2, [r4, #24]
     9d4:	421a      	tst	r2, r3
     9d6:	d006      	beq.n	9e6 <SERCOM0_Handler+0x1e>
     9d8:	7da2      	ldrb	r2, [r4, #22]
     9da:	421a      	tst	r2, r3
     9dc:	d003      	beq.n	9e6 <SERCOM0_Handler+0x1e>
     9de:	7523      	strb	r3, [r4, #20]
     9e0:	6803      	ldr	r3, [r0, #0]
     9e2:	4798      	blx	r3
     9e4:	bd10      	pop	{r4, pc}
     9e6:	7e23      	ldrb	r3, [r4, #24]
     9e8:	2201      	movs	r2, #1
     9ea:	079b      	lsls	r3, r3, #30
     9ec:	d507      	bpl.n	9fe <SERCOM0_Handler+0x36>
     9ee:	7da3      	ldrb	r3, [r4, #22]
     9f0:	40d3      	lsrs	r3, r2
     9f2:	4213      	tst	r3, r2
     9f4:	d003      	beq.n	9fe <SERCOM0_Handler+0x36>
     9f6:	2302      	movs	r3, #2
     9f8:	7523      	strb	r3, [r4, #20]
     9fa:	6883      	ldr	r3, [r0, #8]
     9fc:	e7f1      	b.n	9e2 <SERCOM0_Handler+0x1a>
     9fe:	7e23      	ldrb	r3, [r4, #24]
     a00:	075b      	lsls	r3, r3, #29
     a02:	d50b      	bpl.n	a1c <SERCOM0_Handler+0x54>
     a04:	2337      	movs	r3, #55	; 0x37
     a06:	8b62      	ldrh	r2, [r4, #26]
     a08:	421a      	tst	r2, r3
     a0a:	d002      	beq.n	a12 <SERCOM0_Handler+0x4a>
     a0c:	3308      	adds	r3, #8
     a0e:	8363      	strh	r3, [r4, #26]
     a10:	e7e8      	b.n	9e4 <SERCOM0_Handler+0x1c>
     a12:	8d21      	ldrh	r1, [r4, #40]	; 0x28
     a14:	6843      	ldr	r3, [r0, #4]
     a16:	b2c9      	uxtb	r1, r1
     a18:	4798      	blx	r3
     a1a:	e7e3      	b.n	9e4 <SERCOM0_Handler+0x1c>
     a1c:	7e23      	ldrb	r3, [r4, #24]
     a1e:	09db      	lsrs	r3, r3, #7
     a20:	d0e0      	beq.n	9e4 <SERCOM0_Handler+0x1c>
     a22:	2380      	movs	r3, #128	; 0x80
     a24:	7623      	strb	r3, [r4, #24]
     a26:	68c3      	ldr	r3, [r0, #12]
     a28:	4798      	blx	r3
     a2a:	8b63      	ldrh	r3, [r4, #26]
     a2c:	b29b      	uxth	r3, r3
     a2e:	e7ee      	b.n	a0e <SERCOM0_Handler+0x46>
     a30:	20000068 	.word	0x20000068

00000a34 <_sysctrl_init_sources>:
     a34:	4b0d      	ldr	r3, [pc, #52]	; (a6c <_sysctrl_init_sources+0x38>)
     a36:	480e      	ldr	r0, [pc, #56]	; (a70 <_sysctrl_init_sources+0x3c>)
     a38:	6a1a      	ldr	r2, [r3, #32]
     a3a:	6a19      	ldr	r1, [r3, #32]
     a3c:	4002      	ands	r2, r0
     a3e:	0f89      	lsrs	r1, r1, #30
     a40:	480c      	ldr	r0, [pc, #48]	; (a74 <_sysctrl_init_sources+0x40>)
     a42:	0789      	lsls	r1, r1, #30
     a44:	4301      	orrs	r1, r0
     a46:	430a      	orrs	r2, r1
     a48:	621a      	str	r2, [r3, #32]
     a4a:	2202      	movs	r2, #2
     a4c:	6999      	ldr	r1, [r3, #24]
     a4e:	430a      	orrs	r2, r1
     a50:	211f      	movs	r1, #31
     a52:	619a      	str	r2, [r3, #24]
     a54:	7f1a      	ldrb	r2, [r3, #28]
     a56:	400a      	ands	r2, r1
     a58:	771a      	strb	r2, [r3, #28]
     a5a:	2208      	movs	r2, #8
     a5c:	68d9      	ldr	r1, [r3, #12]
     a5e:	4211      	tst	r1, r2
     a60:	d0fc      	beq.n	a5c <_sysctrl_init_sources+0x28>
     a62:	2280      	movs	r2, #128	; 0x80
     a64:	6a19      	ldr	r1, [r3, #32]
     a66:	430a      	orrs	r2, r1
     a68:	621a      	str	r2, [r3, #32]
     a6a:	4770      	bx	lr
     a6c:	40000800 	.word	0x40000800
     a70:	0fff0000 	.word	0x0fff0000
     a74:	00000302 	.word	0x00000302

00000a78 <_sysctrl_init_referenced_generators>:
     a78:	2102      	movs	r1, #2
     a7a:	4a02      	ldr	r2, [pc, #8]	; (a84 <_sysctrl_init_referenced_generators+0xc>)
     a7c:	6993      	ldr	r3, [r2, #24]
     a7e:	438b      	bics	r3, r1
     a80:	6193      	str	r3, [r2, #24]
     a82:	4770      	bx	lr
     a84:	40000800 	.word	0x40000800

00000a88 <main>:
     a88:	b57f      	push	{r0, r1, r2, r3, r4, r5, r6, lr}
     a8a:	4b14      	ldr	r3, [pc, #80]	; (adc <main+0x54>)
     a8c:	2680      	movs	r6, #128	; 0x80
     a8e:	2400      	movs	r4, #0
     a90:	4798      	blx	r3
     a92:	2301      	movs	r3, #1
     a94:	0076      	lsls	r6, r6, #1
     a96:	4d12      	ldr	r5, [pc, #72]	; (ae0 <main+0x58>)
     a98:	9300      	str	r3, [sp, #0]
     a9a:	0032      	movs	r2, r6
     a9c:	0023      	movs	r3, r4
     a9e:	9403      	str	r4, [sp, #12]
     aa0:	9402      	str	r4, [sp, #8]
     aa2:	9401      	str	r4, [sp, #4]
     aa4:	490f      	ldr	r1, [pc, #60]	; (ae4 <main+0x5c>)
     aa6:	4810      	ldr	r0, [pc, #64]	; (ae8 <main+0x60>)
     aa8:	47a8      	blx	r5
     aaa:	2302      	movs	r3, #2
     aac:	0032      	movs	r2, r6
     aae:	9300      	str	r3, [sp, #0]
     ab0:	9403      	str	r4, [sp, #12]
     ab2:	0023      	movs	r3, r4
     ab4:	9402      	str	r4, [sp, #8]
     ab6:	9401      	str	r4, [sp, #4]
     ab8:	490c      	ldr	r1, [pc, #48]	; (aec <main+0x64>)
     aba:	480d      	ldr	r0, [pc, #52]	; (af0 <main+0x68>)
     abc:	47a8      	blx	r5
     abe:	2303      	movs	r3, #3
     ac0:	0032      	movs	r2, r6
     ac2:	9300      	str	r3, [sp, #0]
     ac4:	490b      	ldr	r1, [pc, #44]	; (af4 <main+0x6c>)
     ac6:	0023      	movs	r3, r4
     ac8:	9403      	str	r4, [sp, #12]
     aca:	9402      	str	r4, [sp, #8]
     acc:	9401      	str	r4, [sp, #4]
     ace:	480a      	ldr	r0, [pc, #40]	; (af8 <main+0x70>)
     ad0:	47a8      	blx	r5
     ad2:	4b0a      	ldr	r3, [pc, #40]	; (afc <main+0x74>)
     ad4:	4798      	blx	r3
     ad6:	0020      	movs	r0, r4
     ad8:	b004      	add	sp, #16
     ada:	bd70      	pop	{r4, r5, r6, pc}
     adc:	000002e1 	.word	0x000002e1
     ae0:	000016bd 	.word	0x000016bd
     ae4:	00002048 	.word	0x00002048
     ae8:	00000171 	.word	0x00000171
     aec:	0000204b 	.word	0x0000204b
     af0:	00000255 	.word	0x00000255
     af4:	0000204e 	.word	0x0000204e
     af8:	00000b01 	.word	0x00000b01
     afc:	000016e9 	.word	0x000016e9

00000b00 <SER_Task>:
     b00:	b5f8      	push	{r3, r4, r5, r6, r7, lr}
     b02:	2200      	movs	r2, #0
     b04:	2110      	movs	r1, #16
     b06:	4b19      	ldr	r3, [pc, #100]	; (b6c <SER_Task+0x6c>)
     b08:	200a      	movs	r0, #10
     b0a:	4798      	blx	r3
     b0c:	4c18      	ldr	r4, [pc, #96]	; (b70 <SER_Task+0x70>)
     b0e:	4b19      	ldr	r3, [pc, #100]	; (b74 <SER_Task+0x74>)
     b10:	6020      	str	r0, [r4, #0]
     b12:	2001      	movs	r0, #1
     b14:	4798      	blx	r3
     b16:	2300      	movs	r3, #0
     b18:	4d17      	ldr	r5, [pc, #92]	; (b78 <SER_Task+0x78>)
     b1a:	6060      	str	r0, [r4, #4]
     b1c:	602b      	str	r3, [r5, #0]
     b1e:	0021      	movs	r1, r4
     b20:	2201      	movs	r2, #1
     b22:	3108      	adds	r1, #8
     b24:	2300      	movs	r3, #0
     b26:	4252      	negs	r2, r2
     b28:	6820      	ldr	r0, [r4, #0]
     b2a:	4e14      	ldr	r6, [pc, #80]	; (b7c <SER_Task+0x7c>)
     b2c:	47b0      	blx	r6
     b2e:	2800      	cmp	r0, #0
     b30:	d100      	bne.n	b34 <SER_Task+0x34>
     b32:	bdf8      	pop	{r3, r4, r5, r6, r7, pc}
     b34:	4e12      	ldr	r6, [pc, #72]	; (b80 <SER_Task+0x80>)
     b36:	0029      	movs	r1, r5
     b38:	0030      	movs	r0, r6
     b3a:	4b12      	ldr	r3, [pc, #72]	; (b84 <SER_Task+0x84>)
     b3c:	4798      	blx	r3
     b3e:	0030      	movs	r0, r6
     b40:	4b11      	ldr	r3, [pc, #68]	; (b88 <SER_Task+0x88>)
     b42:	4798      	blx	r3
     b44:	7a23      	ldrb	r3, [r4, #8]
     b46:	4e11      	ldr	r6, [pc, #68]	; (b8c <SER_Task+0x8c>)
     b48:	2b01      	cmp	r3, #1
     b4a:	d004      	beq.n	b56 <SER_Task+0x56>
     b4c:	2b02      	cmp	r3, #2
     b4e:	d002      	beq.n	b56 <SER_Task+0x56>
     b50:	220e      	movs	r2, #14
     b52:	490f      	ldr	r1, [pc, #60]	; (b90 <SER_Task+0x90>)
     b54:	e006      	b.n	b64 <SER_Task+0x64>
     b56:	0027      	movs	r7, r4
     b58:	3709      	adds	r7, #9
     b5a:	0038      	movs	r0, r7
     b5c:	4b0d      	ldr	r3, [pc, #52]	; (b94 <SER_Task+0x94>)
     b5e:	4798      	blx	r3
     b60:	0039      	movs	r1, r7
     b62:	b282      	uxth	r2, r0
     b64:	6828      	ldr	r0, [r5, #0]
     b66:	47b0      	blx	r6
     b68:	e7d9      	b.n	b1e <SER_Task+0x1e>
     b6a:	46c0      	nop			; (mov r8, r8)
     b6c:	00001039 	.word	0x00001039
     b70:	2000006c 	.word	0x2000006c
     b74:	000011e1 	.word	0x000011e1
     b78:	20002a14 	.word	0x20002a14
     b7c:	000012e9 	.word	0x000012e9
     b80:	200029a8 	.word	0x200029a8
     b84:	00000701 	.word	0x00000701
     b88:	000006f1 	.word	0x000006f1
     b8c:	000004a7 	.word	0x000004a7
     b90:	00002055 	.word	0x00002055
     b94:	00002003 	.word	0x00002003

00000b98 <ST_SendMsg>:
     b98:	2300      	movs	r3, #0
     b9a:	2201      	movs	r2, #1
     b9c:	b570      	push	{r4, r5, r6, lr}
     b9e:	4c0a      	ldr	r4, [pc, #40]	; (bc8 <ST_SendMsg+0x30>)
     ba0:	0005      	movs	r5, r0
     ba2:	4252      	negs	r2, r2
     ba4:	0019      	movs	r1, r3
     ba6:	6860      	ldr	r0, [r4, #4]
     ba8:	4e08      	ldr	r6, [pc, #32]	; (bcc <ST_SendMsg+0x34>)
     baa:	47b0      	blx	r6
     bac:	2800      	cmp	r0, #0
     bae:	d00a      	beq.n	bc6 <ST_SendMsg+0x2e>
     bb0:	2300      	movs	r3, #0
     bb2:	0029      	movs	r1, r5
     bb4:	001a      	movs	r2, r3
     bb6:	6820      	ldr	r0, [r4, #0]
     bb8:	4d05      	ldr	r5, [pc, #20]	; (bd0 <ST_SendMsg+0x38>)
     bba:	47a8      	blx	r5
     bbc:	2300      	movs	r3, #0
     bbe:	6860      	ldr	r0, [r4, #4]
     bc0:	001a      	movs	r2, r3
     bc2:	0019      	movs	r1, r3
     bc4:	47a8      	blx	r5
     bc6:	bd70      	pop	{r4, r5, r6, pc}
     bc8:	2000006c 	.word	0x2000006c
     bcc:	000012e9 	.word	0x000012e9
     bd0:	00001091 	.word	0x00001091

00000bd4 <vListInitialise>:
     bd4:	0003      	movs	r3, r0
     bd6:	2201      	movs	r2, #1
     bd8:	3308      	adds	r3, #8
     bda:	6043      	str	r3, [r0, #4]
     bdc:	60c3      	str	r3, [r0, #12]
     bde:	6103      	str	r3, [r0, #16]
     be0:	2300      	movs	r3, #0
     be2:	4252      	negs	r2, r2
     be4:	6082      	str	r2, [r0, #8]
     be6:	6003      	str	r3, [r0, #0]
     be8:	4770      	bx	lr

00000bea <vListInitialiseItem>:
     bea:	2300      	movs	r3, #0
     bec:	6103      	str	r3, [r0, #16]
     bee:	4770      	bx	lr

00000bf0 <vListInsertEnd>:
     bf0:	6843      	ldr	r3, [r0, #4]
     bf2:	689a      	ldr	r2, [r3, #8]
     bf4:	604b      	str	r3, [r1, #4]
     bf6:	608a      	str	r2, [r1, #8]
     bf8:	689a      	ldr	r2, [r3, #8]
     bfa:	6051      	str	r1, [r2, #4]
     bfc:	6099      	str	r1, [r3, #8]
     bfe:	6803      	ldr	r3, [r0, #0]
     c00:	6108      	str	r0, [r1, #16]
     c02:	3301      	adds	r3, #1
     c04:	6003      	str	r3, [r0, #0]
     c06:	4770      	bx	lr

00000c08 <vListInsert>:
     c08:	0003      	movs	r3, r0
     c0a:	680a      	ldr	r2, [r1, #0]
     c0c:	b530      	push	{r4, r5, lr}
     c0e:	3308      	adds	r3, #8
     c10:	1c54      	adds	r4, r2, #1
     c12:	d10b      	bne.n	c2c <vListInsert+0x24>
     c14:	6903      	ldr	r3, [r0, #16]
     c16:	685a      	ldr	r2, [r3, #4]
     c18:	604a      	str	r2, [r1, #4]
     c1a:	6091      	str	r1, [r2, #8]
     c1c:	608b      	str	r3, [r1, #8]
     c1e:	6059      	str	r1, [r3, #4]
     c20:	6803      	ldr	r3, [r0, #0]
     c22:	6108      	str	r0, [r1, #16]
     c24:	3301      	adds	r3, #1
     c26:	6003      	str	r3, [r0, #0]
     c28:	bd30      	pop	{r4, r5, pc}
     c2a:	0023      	movs	r3, r4
     c2c:	685c      	ldr	r4, [r3, #4]
     c2e:	6825      	ldr	r5, [r4, #0]
     c30:	42aa      	cmp	r2, r5
     c32:	d2fa      	bcs.n	c2a <vListInsert+0x22>
     c34:	e7ef      	b.n	c16 <vListInsert+0xe>

00000c36 <uxListRemove>:
     c36:	6841      	ldr	r1, [r0, #4]
     c38:	6882      	ldr	r2, [r0, #8]
     c3a:	6903      	ldr	r3, [r0, #16]
     c3c:	608a      	str	r2, [r1, #8]
     c3e:	6882      	ldr	r2, [r0, #8]
     c40:	6051      	str	r1, [r2, #4]
     c42:	6859      	ldr	r1, [r3, #4]
     c44:	4288      	cmp	r0, r1
     c46:	d100      	bne.n	c4a <uxListRemove+0x14>
     c48:	605a      	str	r2, [r3, #4]
     c4a:	2200      	movs	r2, #0
     c4c:	6102      	str	r2, [r0, #16]
     c4e:	681a      	ldr	r2, [r3, #0]
     c50:	1e50      	subs	r0, r2, #1
     c52:	6018      	str	r0, [r3, #0]
     c54:	4770      	bx	lr
	...

00000c58 <prvTaskExitError>:
     c58:	4b03      	ldr	r3, [pc, #12]	; (c68 <prvTaskExitError+0x10>)
     c5a:	681b      	ldr	r3, [r3, #0]
     c5c:	3301      	adds	r3, #1
     c5e:	d001      	beq.n	c64 <prvTaskExitError+0xc>
     c60:	b672      	cpsid	i
     c62:	e7fe      	b.n	c62 <prvTaskExitError+0xa>
     c64:	b672      	cpsid	i
     c66:	e7fe      	b.n	c66 <prvTaskExitError+0xe>
     c68:	20000000 	.word	0x20000000

00000c6c <vPortStartFirstTask>:
     c6c:	4a06      	ldr	r2, [pc, #24]	; (c88 <pxCurrentTCBConst2>)
     c6e:	6813      	ldr	r3, [r2, #0]
     c70:	6818      	ldr	r0, [r3, #0]
     c72:	3020      	adds	r0, #32
     c74:	f380 8809 	msr	PSP, r0
     c78:	2002      	movs	r0, #2
     c7a:	f380 8814 	msr	CONTROL, r0
     c7e:	bc3f      	pop	{r0, r1, r2, r3, r4, r5}
     c80:	46ae      	mov	lr, r5
     c82:	b662      	cpsie	i
     c84:	bd00      	pop	{pc}
     c86:	46c0      	nop			; (mov r8, r8)

00000c88 <pxCurrentTCBConst2>:
     c88:	200028b4 	.word	0x200028b4

00000c8c <pxPortInitialiseStack>:
     c8c:	b510      	push	{r4, lr}
     c8e:	2480      	movs	r4, #128	; 0x80
     c90:	1f03      	subs	r3, r0, #4
     c92:	0464      	lsls	r4, r4, #17
     c94:	601c      	str	r4, [r3, #0]
     c96:	3b04      	subs	r3, #4
     c98:	6019      	str	r1, [r3, #0]
     c9a:	4903      	ldr	r1, [pc, #12]	; (ca8 <pxPortInitialiseStack+0x1c>)
     c9c:	3b04      	subs	r3, #4
     c9e:	6019      	str	r1, [r3, #0]
     ca0:	3b14      	subs	r3, #20
     ca2:	3840      	subs	r0, #64	; 0x40
     ca4:	601a      	str	r2, [r3, #0]
     ca6:	bd10      	pop	{r4, pc}
     ca8:	00000c59 	.word	0x00000c59

00000cac <SVCall_Handler>:
     cac:	4770      	bx	lr
	...

00000cb0 <vPortYield>:
     cb0:	2280      	movs	r2, #128	; 0x80
     cb2:	4b04      	ldr	r3, [pc, #16]	; (cc4 <vPortYield+0x14>)
     cb4:	0552      	lsls	r2, r2, #21
     cb6:	601a      	str	r2, [r3, #0]
     cb8:	f3bf 8f4f 	dsb	sy
     cbc:	f3bf 8f6f 	isb	sy
     cc0:	4770      	bx	lr
     cc2:	46c0      	nop			; (mov r8, r8)
     cc4:	e000ed04 	.word	0xe000ed04

00000cc8 <vPortEnterCritical>:
     cc8:	b672      	cpsid	i
     cca:	4a04      	ldr	r2, [pc, #16]	; (cdc <vPortEnterCritical+0x14>)
     ccc:	6813      	ldr	r3, [r2, #0]
     cce:	3301      	adds	r3, #1
     cd0:	6013      	str	r3, [r2, #0]
     cd2:	f3bf 8f4f 	dsb	sy
     cd6:	f3bf 8f6f 	isb	sy
     cda:	4770      	bx	lr
     cdc:	20000000 	.word	0x20000000

00000ce0 <vPortExitCritical>:
     ce0:	4a05      	ldr	r2, [pc, #20]	; (cf8 <vPortExitCritical+0x18>)
     ce2:	6813      	ldr	r3, [r2, #0]
     ce4:	2b00      	cmp	r3, #0
     ce6:	d101      	bne.n	cec <vPortExitCritical+0xc>
     ce8:	b672      	cpsid	i
     cea:	e7fe      	b.n	cea <vPortExitCritical+0xa>
     cec:	3b01      	subs	r3, #1
     cee:	6013      	str	r3, [r2, #0]
     cf0:	2b00      	cmp	r3, #0
     cf2:	d100      	bne.n	cf6 <vPortExitCritical+0x16>
     cf4:	b662      	cpsie	i
     cf6:	4770      	bx	lr
     cf8:	20000000 	.word	0x20000000

00000cfc <ulSetInterruptMaskFromISR>:
     cfc:	f3ef 8010 	mrs	r0, PRIMASK
     d00:	b672      	cpsid	i
     d02:	4770      	bx	lr
     d04:	2000      	movs	r0, #0

00000d06 <vClearInterruptMaskFromISR>:
     d06:	f380 8810 	msr	PRIMASK, r0
     d0a:	4770      	bx	lr

00000d0c <PendSV_Handler>:
     d0c:	f3ef 8009 	mrs	r0, PSP
     d10:	4b0e      	ldr	r3, [pc, #56]	; (d4c <pxCurrentTCBConst>)
     d12:	681a      	ldr	r2, [r3, #0]
     d14:	3820      	subs	r0, #32
     d16:	6010      	str	r0, [r2, #0]
     d18:	c0f0      	stmia	r0!, {r4, r5, r6, r7}
     d1a:	4644      	mov	r4, r8
     d1c:	464d      	mov	r5, r9
     d1e:	4656      	mov	r6, sl
     d20:	465f      	mov	r7, fp
     d22:	c0f0      	stmia	r0!, {r4, r5, r6, r7}
     d24:	b508      	push	{r3, lr}
     d26:	b672      	cpsid	i
     d28:	f000 fe1e 	bl	1968 <vTaskSwitchContext>
     d2c:	b662      	cpsie	i
     d2e:	bc0c      	pop	{r2, r3}
     d30:	6811      	ldr	r1, [r2, #0]
     d32:	6808      	ldr	r0, [r1, #0]
     d34:	3010      	adds	r0, #16
     d36:	c8f0      	ldmia	r0!, {r4, r5, r6, r7}
     d38:	46a0      	mov	r8, r4
     d3a:	46a9      	mov	r9, r5
     d3c:	46b2      	mov	sl, r6
     d3e:	46bb      	mov	fp, r7
     d40:	f380 8809 	msr	PSP, r0
     d44:	3820      	subs	r0, #32
     d46:	c8f0      	ldmia	r0!, {r4, r5, r6, r7}
     d48:	4718      	bx	r3
     d4a:	46c0      	nop			; (mov r8, r8)

00000d4c <pxCurrentTCBConst>:
     d4c:	200028b4 	.word	0x200028b4

00000d50 <SysTick_Handler>:
     d50:	b510      	push	{r4, lr}
     d52:	4b07      	ldr	r3, [pc, #28]	; (d70 <SysTick_Handler+0x20>)
     d54:	4798      	blx	r3
     d56:	4b07      	ldr	r3, [pc, #28]	; (d74 <SysTick_Handler+0x24>)
     d58:	0004      	movs	r4, r0
     d5a:	4798      	blx	r3
     d5c:	2800      	cmp	r0, #0
     d5e:	d003      	beq.n	d68 <SysTick_Handler+0x18>
     d60:	2280      	movs	r2, #128	; 0x80
     d62:	4b05      	ldr	r3, [pc, #20]	; (d78 <SysTick_Handler+0x28>)
     d64:	0552      	lsls	r2, r2, #21
     d66:	601a      	str	r2, [r3, #0]
     d68:	0020      	movs	r0, r4
     d6a:	4b04      	ldr	r3, [pc, #16]	; (d7c <SysTick_Handler+0x2c>)
     d6c:	4798      	blx	r3
     d6e:	bd10      	pop	{r4, pc}
     d70:	00000cfd 	.word	0x00000cfd
     d74:	0000176d 	.word	0x0000176d
     d78:	e000ed04 	.word	0xe000ed04
     d7c:	00000d07 	.word	0x00000d07

00000d80 <vPortSetupTimerInterrupt>:
     d80:	2200      	movs	r2, #0
     d82:	4b04      	ldr	r3, [pc, #16]	; (d94 <vPortSetupTimerInterrupt+0x14>)
     d84:	601a      	str	r2, [r3, #0]
     d86:	4a04      	ldr	r2, [pc, #16]	; (d98 <vPortSetupTimerInterrupt+0x18>)
     d88:	4b04      	ldr	r3, [pc, #16]	; (d9c <vPortSetupTimerInterrupt+0x1c>)
     d8a:	601a      	str	r2, [r3, #0]
     d8c:	2207      	movs	r2, #7
     d8e:	4b04      	ldr	r3, [pc, #16]	; (da0 <vPortSetupTimerInterrupt+0x20>)
     d90:	601a      	str	r2, [r3, #0]
     d92:	4770      	bx	lr
     d94:	e000e018 	.word	0xe000e018
     d98:	000003e7 	.word	0x000003e7
     d9c:	e000e014 	.word	0xe000e014
     da0:	e000e010 	.word	0xe000e010

00000da4 <xPortStartScheduler>:
     da4:	22ff      	movs	r2, #255	; 0xff
     da6:	4b0a      	ldr	r3, [pc, #40]	; (dd0 <xPortStartScheduler+0x2c>)
     da8:	0412      	lsls	r2, r2, #16
     daa:	6819      	ldr	r1, [r3, #0]
     dac:	b510      	push	{r4, lr}
     dae:	430a      	orrs	r2, r1
     db0:	601a      	str	r2, [r3, #0]
     db2:	22ff      	movs	r2, #255	; 0xff
     db4:	6819      	ldr	r1, [r3, #0]
     db6:	0612      	lsls	r2, r2, #24
     db8:	430a      	orrs	r2, r1
     dba:	601a      	str	r2, [r3, #0]
     dbc:	4b05      	ldr	r3, [pc, #20]	; (dd4 <xPortStartScheduler+0x30>)
     dbe:	4798      	blx	r3
     dc0:	2200      	movs	r2, #0
     dc2:	4b05      	ldr	r3, [pc, #20]	; (dd8 <xPortStartScheduler+0x34>)
     dc4:	601a      	str	r2, [r3, #0]
     dc6:	4b05      	ldr	r3, [pc, #20]	; (ddc <xPortStartScheduler+0x38>)
     dc8:	4798      	blx	r3
     dca:	4b05      	ldr	r3, [pc, #20]	; (de0 <xPortStartScheduler+0x3c>)
     dcc:	4798      	blx	r3
     dce:	46c0      	nop			; (mov r8, r8)
     dd0:	e000ed20 	.word	0xe000ed20
     dd4:	00000d81 	.word	0x00000d81
     dd8:	20000000 	.word	0x20000000
     ddc:	00000c6d 	.word	0x00000c6d
     de0:	00000c59 	.word	0x00000c59

00000de4 <pvPortMalloc>:
     de4:	2307      	movs	r3, #7
     de6:	b570      	push	{r4, r5, r6, lr}
     de8:	0004      	movs	r4, r0
     dea:	4218      	tst	r0, r3
     dec:	d001      	beq.n	df2 <pvPortMalloc+0xe>
     dee:	439c      	bics	r4, r3
     df0:	3408      	adds	r4, #8
     df2:	4b0d      	ldr	r3, [pc, #52]	; (e28 <pvPortMalloc+0x44>)
     df4:	4798      	blx	r3
     df6:	4b0d      	ldr	r3, [pc, #52]	; (e2c <pvPortMalloc+0x48>)
     df8:	681a      	ldr	r2, [r3, #0]
     dfa:	2a00      	cmp	r2, #0
     dfc:	d104      	bne.n	e08 <pvPortMalloc+0x24>
     dfe:	001a      	movs	r2, r3
     e00:	2107      	movs	r1, #7
     e02:	320c      	adds	r2, #12
     e04:	438a      	bics	r2, r1
     e06:	601a      	str	r2, [r3, #0]
     e08:	4909      	ldr	r1, [pc, #36]	; (e30 <pvPortMalloc+0x4c>)
     e0a:	480a      	ldr	r0, [pc, #40]	; (e34 <pvPortMalloc+0x50>)
     e0c:	684a      	ldr	r2, [r1, #4]
     e0e:	2500      	movs	r5, #0
     e10:	18a4      	adds	r4, r4, r2
     e12:	4284      	cmp	r4, r0
     e14:	d804      	bhi.n	e20 <pvPortMalloc+0x3c>
     e16:	42a2      	cmp	r2, r4
     e18:	d202      	bcs.n	e20 <pvPortMalloc+0x3c>
     e1a:	681d      	ldr	r5, [r3, #0]
     e1c:	604c      	str	r4, [r1, #4]
     e1e:	18ad      	adds	r5, r5, r2
     e20:	4b05      	ldr	r3, [pc, #20]	; (e38 <pvPortMalloc+0x54>)
     e22:	4798      	blx	r3
     e24:	0028      	movs	r0, r5
     e26:	bd70      	pop	{r4, r5, r6, pc}
     e28:	0000173d 	.word	0x0000173d
     e2c:	20000084 	.word	0x20000084
     e30:	20002884 	.word	0x20002884
     e34:	000027f7 	.word	0x000027f7
     e38:	00001855 	.word	0x00001855

00000e3c <vPortFree>:
     e3c:	2800      	cmp	r0, #0
     e3e:	d001      	beq.n	e44 <vPortFree+0x8>
     e40:	b672      	cpsid	i
     e42:	e7fe      	b.n	e42 <vPortFree+0x6>
     e44:	4770      	bx	lr
	...

00000e48 <prvCopyDataToQueue>:
     e48:	b570      	push	{r4, r5, r6, lr}
     e4a:	0015      	movs	r5, r2
     e4c:	6c02      	ldr	r2, [r0, #64]	; 0x40
     e4e:	0004      	movs	r4, r0
     e50:	2a00      	cmp	r2, #0
     e52:	d10a      	bne.n	e6a <prvCopyDataToQueue+0x22>
     e54:	6805      	ldr	r5, [r0, #0]
     e56:	2d00      	cmp	r5, #0
     e58:	d103      	bne.n	e62 <prvCopyDataToQueue+0x1a>
     e5a:	6840      	ldr	r0, [r0, #4]
     e5c:	4b15      	ldr	r3, [pc, #84]	; (eb4 <prvCopyDataToQueue+0x6c>)
     e5e:	4798      	blx	r3
     e60:	6065      	str	r5, [r4, #4]
     e62:	6ba3      	ldr	r3, [r4, #56]	; 0x38
     e64:	3301      	adds	r3, #1
     e66:	63a3      	str	r3, [r4, #56]	; 0x38
     e68:	bd70      	pop	{r4, r5, r6, pc}
     e6a:	4b13      	ldr	r3, [pc, #76]	; (eb8 <prvCopyDataToQueue+0x70>)
     e6c:	2d00      	cmp	r5, #0
     e6e:	d10b      	bne.n	e88 <prvCopyDataToQueue+0x40>
     e70:	6880      	ldr	r0, [r0, #8]
     e72:	4798      	blx	r3
     e74:	68a3      	ldr	r3, [r4, #8]
     e76:	6c22      	ldr	r2, [r4, #64]	; 0x40
     e78:	189b      	adds	r3, r3, r2
     e7a:	6862      	ldr	r2, [r4, #4]
     e7c:	60a3      	str	r3, [r4, #8]
     e7e:	4293      	cmp	r3, r2
     e80:	d3ef      	bcc.n	e62 <prvCopyDataToQueue+0x1a>
     e82:	6823      	ldr	r3, [r4, #0]
     e84:	60a3      	str	r3, [r4, #8]
     e86:	e7ec      	b.n	e62 <prvCopyDataToQueue+0x1a>
     e88:	68c0      	ldr	r0, [r0, #12]
     e8a:	4798      	blx	r3
     e8c:	6c23      	ldr	r3, [r4, #64]	; 0x40
     e8e:	68e2      	ldr	r2, [r4, #12]
     e90:	425b      	negs	r3, r3
     e92:	6821      	ldr	r1, [r4, #0]
     e94:	18d2      	adds	r2, r2, r3
     e96:	60e2      	str	r2, [r4, #12]
     e98:	428a      	cmp	r2, r1
     e9a:	d202      	bcs.n	ea2 <prvCopyDataToQueue+0x5a>
     e9c:	6862      	ldr	r2, [r4, #4]
     e9e:	18d3      	adds	r3, r2, r3
     ea0:	60e3      	str	r3, [r4, #12]
     ea2:	2d02      	cmp	r5, #2
     ea4:	d1dd      	bne.n	e62 <prvCopyDataToQueue+0x1a>
     ea6:	6ba3      	ldr	r3, [r4, #56]	; 0x38
     ea8:	2b00      	cmp	r3, #0
     eaa:	d0da      	beq.n	e62 <prvCopyDataToQueue+0x1a>
     eac:	6ba3      	ldr	r3, [r4, #56]	; 0x38
     eae:	3b01      	subs	r3, #1
     eb0:	63a3      	str	r3, [r4, #56]	; 0x38
     eb2:	e7d6      	b.n	e62 <prvCopyDataToQueue+0x1a>
     eb4:	00001bed 	.word	0x00001bed
     eb8:	00001fe1 	.word	0x00001fe1

00000ebc <prvNotifyQueueSetContainer>:
     ebc:	b513      	push	{r0, r1, r4, lr}
     ebe:	6d44      	ldr	r4, [r0, #84]	; 0x54
     ec0:	9001      	str	r0, [sp, #4]
     ec2:	000a      	movs	r2, r1
     ec4:	2c00      	cmp	r4, #0
     ec6:	d101      	bne.n	ecc <prvNotifyQueueSetContainer+0x10>
     ec8:	b672      	cpsid	i
     eca:	e7fe      	b.n	eca <prvNotifyQueueSetContainer+0xe>
     ecc:	6ba1      	ldr	r1, [r4, #56]	; 0x38
     ece:	6be3      	ldr	r3, [r4, #60]	; 0x3c
     ed0:	4299      	cmp	r1, r3
     ed2:	d301      	bcc.n	ed8 <prvNotifyQueueSetContainer+0x1c>
     ed4:	b672      	cpsid	i
     ed6:	e7fe      	b.n	ed6 <prvNotifyQueueSetContainer+0x1a>
     ed8:	6ba1      	ldr	r1, [r4, #56]	; 0x38
     eda:	428b      	cmp	r3, r1
     edc:	d801      	bhi.n	ee2 <prvNotifyQueueSetContainer+0x26>
     ede:	2000      	movs	r0, #0
     ee0:	bd16      	pop	{r1, r2, r4, pc}
     ee2:	4b07      	ldr	r3, [pc, #28]	; (f00 <prvNotifyQueueSetContainer+0x44>)
     ee4:	a901      	add	r1, sp, #4
     ee6:	0020      	movs	r0, r4
     ee8:	4798      	blx	r3
     eea:	6a63      	ldr	r3, [r4, #36]	; 0x24
     eec:	2b00      	cmp	r3, #0
     eee:	d0f6      	beq.n	ede <prvNotifyQueueSetContainer+0x22>
     ef0:	0020      	movs	r0, r4
     ef2:	4b04      	ldr	r3, [pc, #16]	; (f04 <prvNotifyQueueSetContainer+0x48>)
     ef4:	3024      	adds	r0, #36	; 0x24
     ef6:	4798      	blx	r3
     ef8:	1e43      	subs	r3, r0, #1
     efa:	4198      	sbcs	r0, r3
     efc:	e7f0      	b.n	ee0 <prvNotifyQueueSetContainer+0x24>
     efe:	46c0      	nop			; (mov r8, r8)
     f00:	00000e49 	.word	0x00000e49
     f04:	00001a61 	.word	0x00001a61

00000f08 <prvCopyDataFromQueue>:
     f08:	0003      	movs	r3, r0
     f0a:	b570      	push	{r4, r5, r6, lr}
     f0c:	681c      	ldr	r4, [r3, #0]
     f0e:	0008      	movs	r0, r1
     f10:	2c00      	cmp	r4, #0
     f12:	d00a      	beq.n	f2a <prvCopyDataFromQueue+0x22>
     f14:	68d9      	ldr	r1, [r3, #12]
     f16:	6c1a      	ldr	r2, [r3, #64]	; 0x40
     f18:	685d      	ldr	r5, [r3, #4]
     f1a:	1889      	adds	r1, r1, r2
     f1c:	60d9      	str	r1, [r3, #12]
     f1e:	42a9      	cmp	r1, r5
     f20:	d300      	bcc.n	f24 <prvCopyDataFromQueue+0x1c>
     f22:	60dc      	str	r4, [r3, #12]
     f24:	68d9      	ldr	r1, [r3, #12]
     f26:	4b01      	ldr	r3, [pc, #4]	; (f2c <prvCopyDataFromQueue+0x24>)
     f28:	4798      	blx	r3
     f2a:	bd70      	pop	{r4, r5, r6, pc}
     f2c:	00001fe1 	.word	0x00001fe1

00000f30 <prvUnlockQueue>:
     f30:	b570      	push	{r4, r5, r6, lr}
     f32:	4e1e      	ldr	r6, [pc, #120]	; (fac <prvUnlockQueue+0x7c>)
     f34:	0004      	movs	r4, r0
     f36:	47b0      	blx	r6
     f38:	6ca3      	ldr	r3, [r4, #72]	; 0x48
     f3a:	2b00      	cmp	r3, #0
     f3c:	dc0d      	bgt.n	f5a <prvUnlockQueue+0x2a>
     f3e:	2301      	movs	r3, #1
     f40:	425b      	negs	r3, r3
     f42:	64a3      	str	r3, [r4, #72]	; 0x48
     f44:	4d1a      	ldr	r5, [pc, #104]	; (fb0 <prvUnlockQueue+0x80>)
     f46:	47a8      	blx	r5
     f48:	47b0      	blx	r6
     f4a:	6c63      	ldr	r3, [r4, #68]	; 0x44
     f4c:	2b00      	cmp	r3, #0
     f4e:	dc1d      	bgt.n	f8c <prvUnlockQueue+0x5c>
     f50:	2301      	movs	r3, #1
     f52:	425b      	negs	r3, r3
     f54:	6463      	str	r3, [r4, #68]	; 0x44
     f56:	47a8      	blx	r5
     f58:	bd70      	pop	{r4, r5, r6, pc}
     f5a:	6d63      	ldr	r3, [r4, #84]	; 0x54
     f5c:	2b00      	cmp	r3, #0
     f5e:	d00b      	beq.n	f78 <prvUnlockQueue+0x48>
     f60:	2100      	movs	r1, #0
     f62:	0020      	movs	r0, r4
     f64:	4b13      	ldr	r3, [pc, #76]	; (fb4 <prvUnlockQueue+0x84>)
     f66:	4798      	blx	r3
     f68:	2801      	cmp	r0, #1
     f6a:	d101      	bne.n	f70 <prvUnlockQueue+0x40>
     f6c:	4b12      	ldr	r3, [pc, #72]	; (fb8 <prvUnlockQueue+0x88>)
     f6e:	4798      	blx	r3
     f70:	6ca3      	ldr	r3, [r4, #72]	; 0x48
     f72:	3b01      	subs	r3, #1
     f74:	64a3      	str	r3, [r4, #72]	; 0x48
     f76:	e7df      	b.n	f38 <prvUnlockQueue+0x8>
     f78:	6a63      	ldr	r3, [r4, #36]	; 0x24
     f7a:	2b00      	cmp	r3, #0
     f7c:	d0df      	beq.n	f3e <prvUnlockQueue+0xe>
     f7e:	0020      	movs	r0, r4
     f80:	4b0e      	ldr	r3, [pc, #56]	; (fbc <prvUnlockQueue+0x8c>)
     f82:	3024      	adds	r0, #36	; 0x24
     f84:	4798      	blx	r3
     f86:	2800      	cmp	r0, #0
     f88:	d0f2      	beq.n	f70 <prvUnlockQueue+0x40>
     f8a:	e7ef      	b.n	f6c <prvUnlockQueue+0x3c>
     f8c:	6923      	ldr	r3, [r4, #16]
     f8e:	2b00      	cmp	r3, #0
     f90:	d0de      	beq.n	f50 <prvUnlockQueue+0x20>
     f92:	0020      	movs	r0, r4
     f94:	4b09      	ldr	r3, [pc, #36]	; (fbc <prvUnlockQueue+0x8c>)
     f96:	3010      	adds	r0, #16
     f98:	4798      	blx	r3
     f9a:	2800      	cmp	r0, #0
     f9c:	d001      	beq.n	fa2 <prvUnlockQueue+0x72>
     f9e:	4b06      	ldr	r3, [pc, #24]	; (fb8 <prvUnlockQueue+0x88>)
     fa0:	4798      	blx	r3
     fa2:	6c63      	ldr	r3, [r4, #68]	; 0x44
     fa4:	3b01      	subs	r3, #1
     fa6:	6463      	str	r3, [r4, #68]	; 0x44
     fa8:	e7cf      	b.n	f4a <prvUnlockQueue+0x1a>
     faa:	46c0      	nop			; (mov r8, r8)
     fac:	00000cc9 	.word	0x00000cc9
     fb0:	00000ce1 	.word	0x00000ce1
     fb4:	00000ebd 	.word	0x00000ebd
     fb8:	00001b49 	.word	0x00001b49
     fbc:	00001a61 	.word	0x00001a61

00000fc0 <xQueueGenericReset>:
     fc0:	b570      	push	{r4, r5, r6, lr}
     fc2:	0004      	movs	r4, r0
     fc4:	000d      	movs	r5, r1
     fc6:	2800      	cmp	r0, #0
     fc8:	d101      	bne.n	fce <xQueueGenericReset+0xe>
     fca:	b672      	cpsid	i
     fcc:	e7fe      	b.n	fcc <xQueueGenericReset+0xc>
     fce:	4b15      	ldr	r3, [pc, #84]	; (1024 <xQueueGenericReset+0x64>)
     fd0:	4798      	blx	r3
     fd2:	6c21      	ldr	r1, [r4, #64]	; 0x40
     fd4:	6be3      	ldr	r3, [r4, #60]	; 0x3c
     fd6:	6822      	ldr	r2, [r4, #0]
     fd8:	434b      	muls	r3, r1
     fda:	18d0      	adds	r0, r2, r3
     fdc:	1a5b      	subs	r3, r3, r1
     fde:	18d3      	adds	r3, r2, r3
     fe0:	60e3      	str	r3, [r4, #12]
     fe2:	2301      	movs	r3, #1
     fe4:	6060      	str	r0, [r4, #4]
     fe6:	2000      	movs	r0, #0
     fe8:	425b      	negs	r3, r3
     fea:	63a0      	str	r0, [r4, #56]	; 0x38
     fec:	60a2      	str	r2, [r4, #8]
     fee:	6463      	str	r3, [r4, #68]	; 0x44
     ff0:	64a3      	str	r3, [r4, #72]	; 0x48
     ff2:	4285      	cmp	r5, r0
     ff4:	d10e      	bne.n	1014 <xQueueGenericReset+0x54>
     ff6:	6923      	ldr	r3, [r4, #16]
     ff8:	4283      	cmp	r3, r0
     ffa:	d007      	beq.n	100c <xQueueGenericReset+0x4c>
     ffc:	0020      	movs	r0, r4
     ffe:	4b0a      	ldr	r3, [pc, #40]	; (1028 <xQueueGenericReset+0x68>)
    1000:	3010      	adds	r0, #16
    1002:	4798      	blx	r3
    1004:	2801      	cmp	r0, #1
    1006:	d101      	bne.n	100c <xQueueGenericReset+0x4c>
    1008:	4b08      	ldr	r3, [pc, #32]	; (102c <xQueueGenericReset+0x6c>)
    100a:	4798      	blx	r3
    100c:	4b08      	ldr	r3, [pc, #32]	; (1030 <xQueueGenericReset+0x70>)
    100e:	4798      	blx	r3
    1010:	2001      	movs	r0, #1
    1012:	bd70      	pop	{r4, r5, r6, pc}
    1014:	0020      	movs	r0, r4
    1016:	4d07      	ldr	r5, [pc, #28]	; (1034 <xQueueGenericReset+0x74>)
    1018:	3010      	adds	r0, #16
    101a:	47a8      	blx	r5
    101c:	0020      	movs	r0, r4
    101e:	3024      	adds	r0, #36	; 0x24
    1020:	47a8      	blx	r5
    1022:	e7f3      	b.n	100c <xQueueGenericReset+0x4c>
    1024:	00000cc9 	.word	0x00000cc9
    1028:	00001a61 	.word	0x00001a61
    102c:	00000cb1 	.word	0x00000cb1
    1030:	00000ce1 	.word	0x00000ce1
    1034:	00000bd5 	.word	0x00000bd5

00001038 <xQueueGenericCreate>:
    1038:	b5f7      	push	{r0, r1, r2, r4, r5, r6, r7, lr}
    103a:	0005      	movs	r5, r0
    103c:	000e      	movs	r6, r1
    103e:	9201      	str	r2, [sp, #4]
    1040:	2800      	cmp	r0, #0
    1042:	d00e      	beq.n	1062 <xQueueGenericCreate+0x2a>
    1044:	2058      	movs	r0, #88	; 0x58
    1046:	4f0f      	ldr	r7, [pc, #60]	; (1084 <xQueueGenericCreate+0x4c>)
    1048:	47b8      	blx	r7
    104a:	1e04      	subs	r4, r0, #0
    104c:	d009      	beq.n	1062 <xQueueGenericCreate+0x2a>
    104e:	0030      	movs	r0, r6
    1050:	4368      	muls	r0, r5
    1052:	3001      	adds	r0, #1
    1054:	47b8      	blx	r7
    1056:	6020      	str	r0, [r4, #0]
    1058:	2800      	cmp	r0, #0
    105a:	d104      	bne.n	1066 <xQueueGenericCreate+0x2e>
    105c:	0020      	movs	r0, r4
    105e:	4b0a      	ldr	r3, [pc, #40]	; (1088 <xQueueGenericCreate+0x50>)
    1060:	4798      	blx	r3
    1062:	b672      	cpsid	i
    1064:	e7fe      	b.n	1064 <xQueueGenericCreate+0x2c>
    1066:	63e5      	str	r5, [r4, #60]	; 0x3c
    1068:	6426      	str	r6, [r4, #64]	; 0x40
    106a:	2101      	movs	r1, #1
    106c:	0020      	movs	r0, r4
    106e:	4b07      	ldr	r3, [pc, #28]	; (108c <xQueueGenericCreate+0x54>)
    1070:	4798      	blx	r3
    1072:	466a      	mov	r2, sp
    1074:	0023      	movs	r3, r4
    1076:	7912      	ldrb	r2, [r2, #4]
    1078:	3350      	adds	r3, #80	; 0x50
    107a:	701a      	strb	r2, [r3, #0]
    107c:	2300      	movs	r3, #0
    107e:	0020      	movs	r0, r4
    1080:	6563      	str	r3, [r4, #84]	; 0x54
    1082:	bdfe      	pop	{r1, r2, r3, r4, r5, r6, r7, pc}
    1084:	00000de5 	.word	0x00000de5
    1088:	00000e3d 	.word	0x00000e3d
    108c:	00000fc1 	.word	0x00000fc1

00001090 <xQueueGenericSend>:
    1090:	b5f0      	push	{r4, r5, r6, r7, lr}
    1092:	b089      	sub	sp, #36	; 0x24
    1094:	1e04      	subs	r4, r0, #0
    1096:	9102      	str	r1, [sp, #8]
    1098:	9205      	str	r2, [sp, #20]
    109a:	9301      	str	r3, [sp, #4]
    109c:	d101      	bne.n	10a2 <xQueueGenericSend+0x12>
    109e:	b672      	cpsid	i
    10a0:	e7fe      	b.n	10a0 <xQueueGenericSend+0x10>
    10a2:	9b02      	ldr	r3, [sp, #8]
    10a4:	2b00      	cmp	r3, #0
    10a6:	d000      	beq.n	10aa <xQueueGenericSend+0x1a>
    10a8:	e06e      	b.n	1188 <xQueueGenericSend+0xf8>
    10aa:	6c03      	ldr	r3, [r0, #64]	; 0x40
    10ac:	2b00      	cmp	r3, #0
    10ae:	d100      	bne.n	10b2 <xQueueGenericSend+0x22>
    10b0:	e06a      	b.n	1188 <xQueueGenericSend+0xf8>
    10b2:	b672      	cpsid	i
    10b4:	e7fe      	b.n	10b4 <xQueueGenericSend+0x24>
    10b6:	6a63      	ldr	r3, [r4, #36]	; 0x24
    10b8:	2b00      	cmp	r3, #0
    10ba:	d059      	beq.n	1170 <xQueueGenericSend+0xe0>
    10bc:	0020      	movs	r0, r4
    10be:	4b3b      	ldr	r3, [pc, #236]	; (11ac <xQueueGenericSend+0x11c>)
    10c0:	3024      	adds	r0, #36	; 0x24
    10c2:	4798      	blx	r3
    10c4:	e050      	b.n	1168 <xQueueGenericSend+0xd8>
    10c6:	9d05      	ldr	r5, [sp, #20]
    10c8:	2d00      	cmp	r5, #0
    10ca:	d102      	bne.n	10d2 <xQueueGenericSend+0x42>
    10cc:	47b8      	blx	r7
    10ce:	2000      	movs	r0, #0
    10d0:	e050      	b.n	1174 <xQueueGenericSend+0xe4>
    10d2:	2e00      	cmp	r6, #0
    10d4:	d102      	bne.n	10dc <xQueueGenericSend+0x4c>
    10d6:	a806      	add	r0, sp, #24
    10d8:	4b35      	ldr	r3, [pc, #212]	; (11b0 <xQueueGenericSend+0x120>)
    10da:	4798      	blx	r3
    10dc:	47b8      	blx	r7
    10de:	4b35      	ldr	r3, [pc, #212]	; (11b4 <xQueueGenericSend+0x124>)
    10e0:	4798      	blx	r3
    10e2:	4b35      	ldr	r3, [pc, #212]	; (11b8 <xQueueGenericSend+0x128>)
    10e4:	4798      	blx	r3
    10e6:	6c63      	ldr	r3, [r4, #68]	; 0x44
    10e8:	3301      	adds	r3, #1
    10ea:	d101      	bne.n	10f0 <xQueueGenericSend+0x60>
    10ec:	2300      	movs	r3, #0
    10ee:	6463      	str	r3, [r4, #68]	; 0x44
    10f0:	6ca3      	ldr	r3, [r4, #72]	; 0x48
    10f2:	3301      	adds	r3, #1
    10f4:	d101      	bne.n	10fa <xQueueGenericSend+0x6a>
    10f6:	2300      	movs	r3, #0
    10f8:	64a3      	str	r3, [r4, #72]	; 0x48
    10fa:	47b8      	blx	r7
    10fc:	a905      	add	r1, sp, #20
    10fe:	a806      	add	r0, sp, #24
    1100:	4b2e      	ldr	r3, [pc, #184]	; (11bc <xQueueGenericSend+0x12c>)
    1102:	4798      	blx	r3
    1104:	4e2e      	ldr	r6, [pc, #184]	; (11c0 <xQueueGenericSend+0x130>)
    1106:	4d2f      	ldr	r5, [pc, #188]	; (11c4 <xQueueGenericSend+0x134>)
    1108:	2800      	cmp	r0, #0
    110a:	d139      	bne.n	1180 <xQueueGenericSend+0xf0>
    110c:	4b2a      	ldr	r3, [pc, #168]	; (11b8 <xQueueGenericSend+0x128>)
    110e:	4798      	blx	r3
    1110:	6ba3      	ldr	r3, [r4, #56]	; 0x38
    1112:	9303      	str	r3, [sp, #12]
    1114:	6be3      	ldr	r3, [r4, #60]	; 0x3c
    1116:	9304      	str	r3, [sp, #16]
    1118:	47b8      	blx	r7
    111a:	9b03      	ldr	r3, [sp, #12]
    111c:	9a04      	ldr	r2, [sp, #16]
    111e:	4293      	cmp	r3, r2
    1120:	d12a      	bne.n	1178 <xQueueGenericSend+0xe8>
    1122:	0020      	movs	r0, r4
    1124:	9905      	ldr	r1, [sp, #20]
    1126:	3010      	adds	r0, #16
    1128:	4b27      	ldr	r3, [pc, #156]	; (11c8 <xQueueGenericSend+0x138>)
    112a:	4798      	blx	r3
    112c:	0020      	movs	r0, r4
    112e:	47b0      	blx	r6
    1130:	47a8      	blx	r5
    1132:	2800      	cmp	r0, #0
    1134:	d101      	bne.n	113a <xQueueGenericSend+0xaa>
    1136:	4b25      	ldr	r3, [pc, #148]	; (11cc <xQueueGenericSend+0x13c>)
    1138:	4798      	blx	r3
    113a:	2601      	movs	r6, #1
    113c:	4b1e      	ldr	r3, [pc, #120]	; (11b8 <xQueueGenericSend+0x128>)
    113e:	4798      	blx	r3
    1140:	6ba3      	ldr	r3, [r4, #56]	; 0x38
    1142:	6be2      	ldr	r2, [r4, #60]	; 0x3c
    1144:	4f22      	ldr	r7, [pc, #136]	; (11d0 <xQueueGenericSend+0x140>)
    1146:	4293      	cmp	r3, r2
    1148:	d302      	bcc.n	1150 <xQueueGenericSend+0xc0>
    114a:	9b01      	ldr	r3, [sp, #4]
    114c:	2b02      	cmp	r3, #2
    114e:	d1ba      	bne.n	10c6 <xQueueGenericSend+0x36>
    1150:	4b20      	ldr	r3, [pc, #128]	; (11d4 <xQueueGenericSend+0x144>)
    1152:	9a01      	ldr	r2, [sp, #4]
    1154:	9902      	ldr	r1, [sp, #8]
    1156:	0020      	movs	r0, r4
    1158:	4798      	blx	r3
    115a:	6d63      	ldr	r3, [r4, #84]	; 0x54
    115c:	2b00      	cmp	r3, #0
    115e:	d0aa      	beq.n	10b6 <xQueueGenericSend+0x26>
    1160:	9901      	ldr	r1, [sp, #4]
    1162:	0020      	movs	r0, r4
    1164:	4b1c      	ldr	r3, [pc, #112]	; (11d8 <xQueueGenericSend+0x148>)
    1166:	4798      	blx	r3
    1168:	2801      	cmp	r0, #1
    116a:	d101      	bne.n	1170 <xQueueGenericSend+0xe0>
    116c:	4b17      	ldr	r3, [pc, #92]	; (11cc <xQueueGenericSend+0x13c>)
    116e:	4798      	blx	r3
    1170:	47b8      	blx	r7
    1172:	2001      	movs	r0, #1
    1174:	b009      	add	sp, #36	; 0x24
    1176:	bdf0      	pop	{r4, r5, r6, r7, pc}
    1178:	0020      	movs	r0, r4
    117a:	47b0      	blx	r6
    117c:	47a8      	blx	r5
    117e:	e7dc      	b.n	113a <xQueueGenericSend+0xaa>
    1180:	0020      	movs	r0, r4
    1182:	47b0      	blx	r6
    1184:	47a8      	blx	r5
    1186:	e7a2      	b.n	10ce <xQueueGenericSend+0x3e>
    1188:	9b01      	ldr	r3, [sp, #4]
    118a:	2b02      	cmp	r3, #2
    118c:	d102      	bne.n	1194 <xQueueGenericSend+0x104>
    118e:	6be3      	ldr	r3, [r4, #60]	; 0x3c
    1190:	2b01      	cmp	r3, #1
    1192:	d109      	bne.n	11a8 <xQueueGenericSend+0x118>
    1194:	4b11      	ldr	r3, [pc, #68]	; (11dc <xQueueGenericSend+0x14c>)
    1196:	4798      	blx	r3
    1198:	2600      	movs	r6, #0
    119a:	2800      	cmp	r0, #0
    119c:	d1ce      	bne.n	113c <xQueueGenericSend+0xac>
    119e:	9e05      	ldr	r6, [sp, #20]
    11a0:	2e00      	cmp	r6, #0
    11a2:	d0cb      	beq.n	113c <xQueueGenericSend+0xac>
    11a4:	b672      	cpsid	i
    11a6:	e7fe      	b.n	11a6 <xQueueGenericSend+0x116>
    11a8:	b672      	cpsid	i
    11aa:	e7fe      	b.n	11aa <xQueueGenericSend+0x11a>
    11ac:	00001a61 	.word	0x00001a61
    11b0:	00001acd 	.word	0x00001acd
    11b4:	0000173d 	.word	0x0000173d
    11b8:	00000cc9 	.word	0x00000cc9
    11bc:	00001ae5 	.word	0x00001ae5
    11c0:	00000f31 	.word	0x00000f31
    11c4:	00001855 	.word	0x00001855
    11c8:	000019cd 	.word	0x000019cd
    11cc:	00000cb1 	.word	0x00000cb1
    11d0:	00000ce1 	.word	0x00000ce1
    11d4:	00000e49 	.word	0x00000e49
    11d8:	00000ebd 	.word	0x00000ebd
    11dc:	00001b61 	.word	0x00001b61

000011e0 <xQueueCreateMutex>:
    11e0:	b570      	push	{r4, r5, r6, lr}
    11e2:	4b13      	ldr	r3, [pc, #76]	; (1230 <xQueueCreateMutex+0x50>)
    11e4:	0006      	movs	r6, r0
    11e6:	2058      	movs	r0, #88	; 0x58
    11e8:	4798      	blx	r3
    11ea:	1e04      	subs	r4, r0, #0
    11ec:	d01d      	beq.n	122a <xQueueCreateMutex+0x4a>
    11ee:	2301      	movs	r3, #1
    11f0:	2500      	movs	r5, #0
    11f2:	63c3      	str	r3, [r0, #60]	; 0x3c
    11f4:	3b02      	subs	r3, #2
    11f6:	6385      	str	r5, [r0, #56]	; 0x38
    11f8:	6443      	str	r3, [r0, #68]	; 0x44
    11fa:	6483      	str	r3, [r0, #72]	; 0x48
    11fc:	0003      	movs	r3, r0
    11fe:	3350      	adds	r3, #80	; 0x50
    1200:	6405      	str	r5, [r0, #64]	; 0x40
    1202:	6045      	str	r5, [r0, #4]
    1204:	6005      	str	r5, [r0, #0]
    1206:	6085      	str	r5, [r0, #8]
    1208:	60c5      	str	r5, [r0, #12]
    120a:	701e      	strb	r6, [r3, #0]
    120c:	3010      	adds	r0, #16
    120e:	6445      	str	r5, [r0, #68]	; 0x44
    1210:	4e08      	ldr	r6, [pc, #32]	; (1234 <xQueueCreateMutex+0x54>)
    1212:	47b0      	blx	r6
    1214:	0020      	movs	r0, r4
    1216:	3024      	adds	r0, #36	; 0x24
    1218:	47b0      	blx	r6
    121a:	002b      	movs	r3, r5
    121c:	002a      	movs	r2, r5
    121e:	0029      	movs	r1, r5
    1220:	0020      	movs	r0, r4
    1222:	4d05      	ldr	r5, [pc, #20]	; (1238 <xQueueCreateMutex+0x58>)
    1224:	47a8      	blx	r5
    1226:	0020      	movs	r0, r4
    1228:	bd70      	pop	{r4, r5, r6, pc}
    122a:	b672      	cpsid	i
    122c:	e7fe      	b.n	122c <xQueueCreateMutex+0x4c>
    122e:	46c0      	nop			; (mov r8, r8)
    1230:	00000de5 	.word	0x00000de5
    1234:	00000bd5 	.word	0x00000bd5
    1238:	00001091 	.word	0x00001091

0000123c <xQueueGenericSendFromISR>:
    123c:	b5f7      	push	{r0, r1, r2, r4, r5, r6, r7, lr}
    123e:	0004      	movs	r4, r0
    1240:	9100      	str	r1, [sp, #0]
    1242:	0017      	movs	r7, r2
    1244:	001e      	movs	r6, r3
    1246:	2800      	cmp	r0, #0
    1248:	d101      	bne.n	124e <xQueueGenericSendFromISR+0x12>
    124a:	b672      	cpsid	i
    124c:	e7fe      	b.n	124c <xQueueGenericSendFromISR+0x10>
    124e:	9b00      	ldr	r3, [sp, #0]
    1250:	2b00      	cmp	r3, #0
    1252:	d11a      	bne.n	128a <xQueueGenericSendFromISR+0x4e>
    1254:	6c03      	ldr	r3, [r0, #64]	; 0x40
    1256:	2b00      	cmp	r3, #0
    1258:	d017      	beq.n	128a <xQueueGenericSendFromISR+0x4e>
    125a:	b672      	cpsid	i
    125c:	e7fe      	b.n	125c <xQueueGenericSendFromISR+0x20>
    125e:	6a63      	ldr	r3, [r4, #36]	; 0x24
    1260:	2b00      	cmp	r3, #0
    1262:	d032      	beq.n	12ca <xQueueGenericSendFromISR+0x8e>
    1264:	0020      	movs	r0, r4
    1266:	4b1b      	ldr	r3, [pc, #108]	; (12d4 <xQueueGenericSendFromISR+0x98>)
    1268:	3024      	adds	r0, #36	; 0x24
    126a:	4798      	blx	r3
    126c:	2800      	cmp	r0, #0
    126e:	d02c      	beq.n	12ca <xQueueGenericSendFromISR+0x8e>
    1270:	2f00      	cmp	r7, #0
    1272:	d02a      	beq.n	12ca <xQueueGenericSendFromISR+0x8e>
    1274:	2501      	movs	r5, #1
    1276:	603d      	str	r5, [r7, #0]
    1278:	9801      	ldr	r0, [sp, #4]
    127a:	4b17      	ldr	r3, [pc, #92]	; (12d8 <xQueueGenericSendFromISR+0x9c>)
    127c:	4798      	blx	r3
    127e:	0028      	movs	r0, r5
    1280:	bdfe      	pop	{r1, r2, r3, r4, r5, r6, r7, pc}
    1282:	6ca3      	ldr	r3, [r4, #72]	; 0x48
    1284:	3301      	adds	r3, #1
    1286:	64a3      	str	r3, [r4, #72]	; 0x48
    1288:	e01f      	b.n	12ca <xQueueGenericSendFromISR+0x8e>
    128a:	2e02      	cmp	r6, #2
    128c:	d102      	bne.n	1294 <xQueueGenericSendFromISR+0x58>
    128e:	6be3      	ldr	r3, [r4, #60]	; 0x3c
    1290:	2b01      	cmp	r3, #1
    1292:	d11c      	bne.n	12ce <xQueueGenericSendFromISR+0x92>
    1294:	4b11      	ldr	r3, [pc, #68]	; (12dc <xQueueGenericSendFromISR+0xa0>)
    1296:	4798      	blx	r3
    1298:	6ba3      	ldr	r3, [r4, #56]	; 0x38
    129a:	6be2      	ldr	r2, [r4, #60]	; 0x3c
    129c:	9001      	str	r0, [sp, #4]
    129e:	4293      	cmp	r3, r2
    12a0:	d302      	bcc.n	12a8 <xQueueGenericSendFromISR+0x6c>
    12a2:	2500      	movs	r5, #0
    12a4:	2e02      	cmp	r6, #2
    12a6:	d1e7      	bne.n	1278 <xQueueGenericSendFromISR+0x3c>
    12a8:	4b0d      	ldr	r3, [pc, #52]	; (12e0 <xQueueGenericSendFromISR+0xa4>)
    12aa:	0032      	movs	r2, r6
    12ac:	9900      	ldr	r1, [sp, #0]
    12ae:	0020      	movs	r0, r4
    12b0:	4798      	blx	r3
    12b2:	6ca3      	ldr	r3, [r4, #72]	; 0x48
    12b4:	3301      	adds	r3, #1
    12b6:	d1e4      	bne.n	1282 <xQueueGenericSendFromISR+0x46>
    12b8:	6d63      	ldr	r3, [r4, #84]	; 0x54
    12ba:	2b00      	cmp	r3, #0
    12bc:	d0cf      	beq.n	125e <xQueueGenericSendFromISR+0x22>
    12be:	0031      	movs	r1, r6
    12c0:	0020      	movs	r0, r4
    12c2:	4b08      	ldr	r3, [pc, #32]	; (12e4 <xQueueGenericSendFromISR+0xa8>)
    12c4:	4798      	blx	r3
    12c6:	2801      	cmp	r0, #1
    12c8:	d0d2      	beq.n	1270 <xQueueGenericSendFromISR+0x34>
    12ca:	2501      	movs	r5, #1
    12cc:	e7d4      	b.n	1278 <xQueueGenericSendFromISR+0x3c>
    12ce:	b672      	cpsid	i
    12d0:	e7fe      	b.n	12d0 <xQueueGenericSendFromISR+0x94>
    12d2:	46c0      	nop			; (mov r8, r8)
    12d4:	00001a61 	.word	0x00001a61
    12d8:	00000d07 	.word	0x00000d07
    12dc:	00000cfd 	.word	0x00000cfd
    12e0:	00000e49 	.word	0x00000e49
    12e4:	00000ebd 	.word	0x00000ebd

000012e8 <xQueueGenericReceive>:
    12e8:	b5f0      	push	{r4, r5, r6, r7, lr}
    12ea:	b087      	sub	sp, #28
    12ec:	1e04      	subs	r4, r0, #0
    12ee:	9100      	str	r1, [sp, #0]
    12f0:	9203      	str	r2, [sp, #12]
    12f2:	9302      	str	r3, [sp, #8]
    12f4:	d101      	bne.n	12fa <xQueueGenericReceive+0x12>
    12f6:	b672      	cpsid	i
    12f8:	e7fe      	b.n	12f8 <xQueueGenericReceive+0x10>
    12fa:	9b00      	ldr	r3, [sp, #0]
    12fc:	2b00      	cmp	r3, #0
    12fe:	d000      	beq.n	1302 <xQueueGenericReceive+0x1a>
    1300:	e07f      	b.n	1402 <xQueueGenericReceive+0x11a>
    1302:	6c03      	ldr	r3, [r0, #64]	; 0x40
    1304:	2b00      	cmp	r3, #0
    1306:	d100      	bne.n	130a <xQueueGenericReceive+0x22>
    1308:	e07b      	b.n	1402 <xQueueGenericReceive+0x11a>
    130a:	b672      	cpsid	i
    130c:	e7fe      	b.n	130c <xQueueGenericReceive+0x24>
    130e:	6a63      	ldr	r3, [r4, #36]	; 0x24
    1310:	60e5      	str	r5, [r4, #12]
    1312:	2b00      	cmp	r3, #0
    1314:	d069      	beq.n	13ea <xQueueGenericReceive+0x102>
    1316:	0020      	movs	r0, r4
    1318:	4b3f      	ldr	r3, [pc, #252]	; (1418 <xQueueGenericReceive+0x130>)
    131a:	3024      	adds	r0, #36	; 0x24
    131c:	4798      	blx	r3
    131e:	2800      	cmp	r0, #0
    1320:	d063      	beq.n	13ea <xQueueGenericReceive+0x102>
    1322:	e060      	b.n	13e6 <xQueueGenericReceive+0xfe>
    1324:	9d03      	ldr	r5, [sp, #12]
    1326:	2d00      	cmp	r5, #0
    1328:	d102      	bne.n	1330 <xQueueGenericReceive+0x48>
    132a:	47b8      	blx	r7
    132c:	2000      	movs	r0, #0
    132e:	e05e      	b.n	13ee <xQueueGenericReceive+0x106>
    1330:	2e00      	cmp	r6, #0
    1332:	d102      	bne.n	133a <xQueueGenericReceive+0x52>
    1334:	a804      	add	r0, sp, #16
    1336:	4b39      	ldr	r3, [pc, #228]	; (141c <xQueueGenericReceive+0x134>)
    1338:	4798      	blx	r3
    133a:	47b8      	blx	r7
    133c:	4b38      	ldr	r3, [pc, #224]	; (1420 <xQueueGenericReceive+0x138>)
    133e:	4798      	blx	r3
    1340:	4b38      	ldr	r3, [pc, #224]	; (1424 <xQueueGenericReceive+0x13c>)
    1342:	4798      	blx	r3
    1344:	6c63      	ldr	r3, [r4, #68]	; 0x44
    1346:	3301      	adds	r3, #1
    1348:	d101      	bne.n	134e <xQueueGenericReceive+0x66>
    134a:	2300      	movs	r3, #0
    134c:	6463      	str	r3, [r4, #68]	; 0x44
    134e:	6ca3      	ldr	r3, [r4, #72]	; 0x48
    1350:	3301      	adds	r3, #1
    1352:	d101      	bne.n	1358 <xQueueGenericReceive+0x70>
    1354:	2300      	movs	r3, #0
    1356:	64a3      	str	r3, [r4, #72]	; 0x48
    1358:	47b8      	blx	r7
    135a:	a903      	add	r1, sp, #12
    135c:	a804      	add	r0, sp, #16
    135e:	4b32      	ldr	r3, [pc, #200]	; (1428 <xQueueGenericReceive+0x140>)
    1360:	4798      	blx	r3
    1362:	4e32      	ldr	r6, [pc, #200]	; (142c <xQueueGenericReceive+0x144>)
    1364:	4d32      	ldr	r5, [pc, #200]	; (1430 <xQueueGenericReceive+0x148>)
    1366:	2800      	cmp	r0, #0
    1368:	d147      	bne.n	13fa <xQueueGenericReceive+0x112>
    136a:	4b2e      	ldr	r3, [pc, #184]	; (1424 <xQueueGenericReceive+0x13c>)
    136c:	4798      	blx	r3
    136e:	6ba3      	ldr	r3, [r4, #56]	; 0x38
    1370:	9301      	str	r3, [sp, #4]
    1372:	47b8      	blx	r7
    1374:	9b01      	ldr	r3, [sp, #4]
    1376:	2b00      	cmp	r3, #0
    1378:	d13b      	bne.n	13f2 <xQueueGenericReceive+0x10a>
    137a:	6823      	ldr	r3, [r4, #0]
    137c:	2b00      	cmp	r3, #0
    137e:	d105      	bne.n	138c <xQueueGenericReceive+0xa4>
    1380:	4b28      	ldr	r3, [pc, #160]	; (1424 <xQueueGenericReceive+0x13c>)
    1382:	4798      	blx	r3
    1384:	6860      	ldr	r0, [r4, #4]
    1386:	4b2b      	ldr	r3, [pc, #172]	; (1434 <xQueueGenericReceive+0x14c>)
    1388:	4798      	blx	r3
    138a:	47b8      	blx	r7
    138c:	0020      	movs	r0, r4
    138e:	9903      	ldr	r1, [sp, #12]
    1390:	3024      	adds	r0, #36	; 0x24
    1392:	4b29      	ldr	r3, [pc, #164]	; (1438 <xQueueGenericReceive+0x150>)
    1394:	4798      	blx	r3
    1396:	0020      	movs	r0, r4
    1398:	47b0      	blx	r6
    139a:	47a8      	blx	r5
    139c:	2800      	cmp	r0, #0
    139e:	d101      	bne.n	13a4 <xQueueGenericReceive+0xbc>
    13a0:	4b26      	ldr	r3, [pc, #152]	; (143c <xQueueGenericReceive+0x154>)
    13a2:	4798      	blx	r3
    13a4:	2601      	movs	r6, #1
    13a6:	4b1f      	ldr	r3, [pc, #124]	; (1424 <xQueueGenericReceive+0x13c>)
    13a8:	4798      	blx	r3
    13aa:	6ba3      	ldr	r3, [r4, #56]	; 0x38
    13ac:	4f24      	ldr	r7, [pc, #144]	; (1440 <xQueueGenericReceive+0x158>)
    13ae:	2b00      	cmp	r3, #0
    13b0:	d0b8      	beq.n	1324 <xQueueGenericReceive+0x3c>
    13b2:	4b24      	ldr	r3, [pc, #144]	; (1444 <xQueueGenericReceive+0x15c>)
    13b4:	9900      	ldr	r1, [sp, #0]
    13b6:	0020      	movs	r0, r4
    13b8:	68e5      	ldr	r5, [r4, #12]
    13ba:	4798      	blx	r3
    13bc:	9b02      	ldr	r3, [sp, #8]
    13be:	2b00      	cmp	r3, #0
    13c0:	d1a5      	bne.n	130e <xQueueGenericReceive+0x26>
    13c2:	6ba3      	ldr	r3, [r4, #56]	; 0x38
    13c4:	3b01      	subs	r3, #1
    13c6:	63a3      	str	r3, [r4, #56]	; 0x38
    13c8:	6823      	ldr	r3, [r4, #0]
    13ca:	2b00      	cmp	r3, #0
    13cc:	d102      	bne.n	13d4 <xQueueGenericReceive+0xec>
    13ce:	4b1e      	ldr	r3, [pc, #120]	; (1448 <xQueueGenericReceive+0x160>)
    13d0:	4798      	blx	r3
    13d2:	6060      	str	r0, [r4, #4]
    13d4:	6923      	ldr	r3, [r4, #16]
    13d6:	2b00      	cmp	r3, #0
    13d8:	d007      	beq.n	13ea <xQueueGenericReceive+0x102>
    13da:	0020      	movs	r0, r4
    13dc:	4b0e      	ldr	r3, [pc, #56]	; (1418 <xQueueGenericReceive+0x130>)
    13de:	3010      	adds	r0, #16
    13e0:	4798      	blx	r3
    13e2:	2801      	cmp	r0, #1
    13e4:	d101      	bne.n	13ea <xQueueGenericReceive+0x102>
    13e6:	4b15      	ldr	r3, [pc, #84]	; (143c <xQueueGenericReceive+0x154>)
    13e8:	4798      	blx	r3
    13ea:	47b8      	blx	r7
    13ec:	2001      	movs	r0, #1
    13ee:	b007      	add	sp, #28
    13f0:	bdf0      	pop	{r4, r5, r6, r7, pc}
    13f2:	0020      	movs	r0, r4
    13f4:	47b0      	blx	r6
    13f6:	47a8      	blx	r5
    13f8:	e7d4      	b.n	13a4 <xQueueGenericReceive+0xbc>
    13fa:	0020      	movs	r0, r4
    13fc:	47b0      	blx	r6
    13fe:	47a8      	blx	r5
    1400:	e794      	b.n	132c <xQueueGenericReceive+0x44>
    1402:	4b12      	ldr	r3, [pc, #72]	; (144c <xQueueGenericReceive+0x164>)
    1404:	4798      	blx	r3
    1406:	2600      	movs	r6, #0
    1408:	2800      	cmp	r0, #0
    140a:	d1cc      	bne.n	13a6 <xQueueGenericReceive+0xbe>
    140c:	9e03      	ldr	r6, [sp, #12]
    140e:	2e00      	cmp	r6, #0
    1410:	d0c9      	beq.n	13a6 <xQueueGenericReceive+0xbe>
    1412:	b672      	cpsid	i
    1414:	e7fe      	b.n	1414 <xQueueGenericReceive+0x12c>
    1416:	46c0      	nop			; (mov r8, r8)
    1418:	00001a61 	.word	0x00001a61
    141c:	00001acd 	.word	0x00001acd
    1420:	0000173d 	.word	0x0000173d
    1424:	00000cc9 	.word	0x00000cc9
    1428:	00001ae5 	.word	0x00001ae5
    142c:	00000f31 	.word	0x00000f31
    1430:	00001855 	.word	0x00001855
    1434:	00001b79 	.word	0x00001b79
    1438:	000019cd 	.word	0x000019cd
    143c:	00000cb1 	.word	0x00000cb1
    1440:	00000ce1 	.word	0x00000ce1
    1444:	00000f09 	.word	0x00000f09
    1448:	00001b55 	.word	0x00001b55
    144c:	00001b61 	.word	0x00001b61

00001450 <vQueueWaitForMessageRestricted>:
    1450:	b570      	push	{r4, r5, r6, lr}
    1452:	0004      	movs	r4, r0
    1454:	4b0d      	ldr	r3, [pc, #52]	; (148c <vQueueWaitForMessageRestricted+0x3c>)
    1456:	000d      	movs	r5, r1
    1458:	4798      	blx	r3
    145a:	6c63      	ldr	r3, [r4, #68]	; 0x44
    145c:	3301      	adds	r3, #1
    145e:	d101      	bne.n	1464 <vQueueWaitForMessageRestricted+0x14>
    1460:	2300      	movs	r3, #0
    1462:	6463      	str	r3, [r4, #68]	; 0x44
    1464:	6ca3      	ldr	r3, [r4, #72]	; 0x48
    1466:	3301      	adds	r3, #1
    1468:	d101      	bne.n	146e <vQueueWaitForMessageRestricted+0x1e>
    146a:	2300      	movs	r3, #0
    146c:	64a3      	str	r3, [r4, #72]	; 0x48
    146e:	4b08      	ldr	r3, [pc, #32]	; (1490 <vQueueWaitForMessageRestricted+0x40>)
    1470:	4798      	blx	r3
    1472:	6ba3      	ldr	r3, [r4, #56]	; 0x38
    1474:	2b00      	cmp	r3, #0
    1476:	d104      	bne.n	1482 <vQueueWaitForMessageRestricted+0x32>
    1478:	0020      	movs	r0, r4
    147a:	0029      	movs	r1, r5
    147c:	3024      	adds	r0, #36	; 0x24
    147e:	4b05      	ldr	r3, [pc, #20]	; (1494 <vQueueWaitForMessageRestricted+0x44>)
    1480:	4798      	blx	r3
    1482:	0020      	movs	r0, r4
    1484:	4b04      	ldr	r3, [pc, #16]	; (1498 <vQueueWaitForMessageRestricted+0x48>)
    1486:	4798      	blx	r3
    1488:	bd70      	pop	{r4, r5, r6, pc}
    148a:	46c0      	nop			; (mov r8, r8)
    148c:	00000cc9 	.word	0x00000cc9
    1490:	00000ce1 	.word	0x00000ce1
    1494:	00001a21 	.word	0x00001a21
    1498:	00000f31 	.word	0x00000f31

0000149c <prvGetExpectedIdleTime>:
    149c:	2000      	movs	r0, #0
    149e:	4b07      	ldr	r3, [pc, #28]	; (14bc <prvGetExpectedIdleTime+0x20>)
    14a0:	6a9a      	ldr	r2, [r3, #40]	; 0x28
    14a2:	6ad2      	ldr	r2, [r2, #44]	; 0x2c
    14a4:	4282      	cmp	r2, r0
    14a6:	d107      	bne.n	14b8 <prvGetExpectedIdleTime+0x1c>
    14a8:	6adb      	ldr	r3, [r3, #44]	; 0x2c
    14aa:	2b01      	cmp	r3, #1
    14ac:	d804      	bhi.n	14b8 <prvGetExpectedIdleTime+0x1c>
    14ae:	4b04      	ldr	r3, [pc, #16]	; (14c0 <prvGetExpectedIdleTime+0x24>)
    14b0:	6818      	ldr	r0, [r3, #0]
    14b2:	4b04      	ldr	r3, [pc, #16]	; (14c4 <prvGetExpectedIdleTime+0x28>)
    14b4:	691b      	ldr	r3, [r3, #16]
    14b6:	1ac0      	subs	r0, r0, r3
    14b8:	4770      	bx	lr
    14ba:	46c0      	nop			; (mov r8, r8)
    14bc:	2000288c 	.word	0x2000288c
    14c0:	20000004 	.word	0x20000004
    14c4:	2000290c 	.word	0x2000290c

000014c8 <prvResetNextTaskUnblockTime>:
    14c8:	4a07      	ldr	r2, [pc, #28]	; (14e8 <prvResetNextTaskUnblockTime+0x20>)
    14ca:	6953      	ldr	r3, [r2, #20]
    14cc:	6819      	ldr	r1, [r3, #0]
    14ce:	4b07      	ldr	r3, [pc, #28]	; (14ec <prvResetNextTaskUnblockTime+0x24>)
    14d0:	2900      	cmp	r1, #0
    14d2:	d103      	bne.n	14dc <prvResetNextTaskUnblockTime+0x14>
    14d4:	2201      	movs	r2, #1
    14d6:	4252      	negs	r2, r2
    14d8:	601a      	str	r2, [r3, #0]
    14da:	4770      	bx	lr
    14dc:	6952      	ldr	r2, [r2, #20]
    14de:	68d2      	ldr	r2, [r2, #12]
    14e0:	68d2      	ldr	r2, [r2, #12]
    14e2:	6852      	ldr	r2, [r2, #4]
    14e4:	e7f8      	b.n	14d8 <prvResetNextTaskUnblockTime+0x10>
    14e6:	46c0      	nop			; (mov r8, r8)
    14e8:	2000290c 	.word	0x2000290c
    14ec:	20000004 	.word	0x20000004

000014f0 <prvAddCurrentTaskToDelayedList>:
    14f0:	4b0c      	ldr	r3, [pc, #48]	; (1524 <prvAddCurrentTaskToDelayedList+0x34>)
    14f2:	b570      	push	{r4, r5, r6, lr}
    14f4:	6a9a      	ldr	r2, [r3, #40]	; 0x28
    14f6:	0004      	movs	r4, r0
    14f8:	6050      	str	r0, [r2, #4]
    14fa:	4a0b      	ldr	r2, [pc, #44]	; (1528 <prvAddCurrentTaskToDelayedList+0x38>)
    14fc:	4d0b      	ldr	r5, [pc, #44]	; (152c <prvAddCurrentTaskToDelayedList+0x3c>)
    14fe:	6911      	ldr	r1, [r2, #16]
    1500:	4288      	cmp	r0, r1
    1502:	d204      	bcs.n	150e <prvAddCurrentTaskToDelayedList+0x1e>
    1504:	6990      	ldr	r0, [r2, #24]
    1506:	6a99      	ldr	r1, [r3, #40]	; 0x28
    1508:	3104      	adds	r1, #4
    150a:	47a8      	blx	r5
    150c:	bd70      	pop	{r4, r5, r6, pc}
    150e:	6950      	ldr	r0, [r2, #20]
    1510:	6a99      	ldr	r1, [r3, #40]	; 0x28
    1512:	3104      	adds	r1, #4
    1514:	47a8      	blx	r5
    1516:	4b06      	ldr	r3, [pc, #24]	; (1530 <prvAddCurrentTaskToDelayedList+0x40>)
    1518:	681a      	ldr	r2, [r3, #0]
    151a:	4294      	cmp	r4, r2
    151c:	d2f6      	bcs.n	150c <prvAddCurrentTaskToDelayedList+0x1c>
    151e:	601c      	str	r4, [r3, #0]
    1520:	e7f4      	b.n	150c <prvAddCurrentTaskToDelayedList+0x1c>
    1522:	46c0      	nop			; (mov r8, r8)
    1524:	2000288c 	.word	0x2000288c
    1528:	2000290c 	.word	0x2000290c
    152c:	00000c09 	.word	0x00000c09
    1530:	20000004 	.word	0x20000004

00001534 <xTaskGenericCreate.part.5>:
    1534:	b5f0      	push	{r4, r5, r6, r7, lr}
    1536:	b085      	sub	sp, #20
    1538:	9002      	str	r0, [sp, #8]
    153a:	4e52      	ldr	r6, [pc, #328]	; (1684 <xTaskGenericCreate.part.5+0x150>)
    153c:	2048      	movs	r0, #72	; 0x48
    153e:	000c      	movs	r4, r1
    1540:	0017      	movs	r7, r2
    1542:	9303      	str	r3, [sp, #12]
    1544:	47b0      	blx	r6
    1546:	1e05      	subs	r5, r0, #0
    1548:	d00a      	beq.n	1560 <xTaskGenericCreate.part.5+0x2c>
    154a:	980c      	ldr	r0, [sp, #48]	; 0x30
    154c:	2800      	cmp	r0, #0
    154e:	d101      	bne.n	1554 <xTaskGenericCreate.part.5+0x20>
    1550:	00b8      	lsls	r0, r7, #2
    1552:	47b0      	blx	r6
    1554:	6328      	str	r0, [r5, #48]	; 0x30
    1556:	2800      	cmp	r0, #0
    1558:	d105      	bne.n	1566 <xTaskGenericCreate.part.5+0x32>
    155a:	0028      	movs	r0, r5
    155c:	4b4a      	ldr	r3, [pc, #296]	; (1688 <xTaskGenericCreate.part.5+0x154>)
    155e:	4798      	blx	r3
    1560:	2401      	movs	r4, #1
    1562:	4264      	negs	r4, r4
    1564:	e081      	b.n	166a <xTaskGenericCreate.part.5+0x136>
    1566:	00bf      	lsls	r7, r7, #2
    1568:	003a      	movs	r2, r7
    156a:	4b48      	ldr	r3, [pc, #288]	; (168c <xTaskGenericCreate.part.5+0x158>)
    156c:	21a5      	movs	r1, #165	; 0xa5
    156e:	4798      	blx	r3
    1570:	6b2b      	ldr	r3, [r5, #48]	; 0x30
    1572:	3f04      	subs	r7, #4
    1574:	19df      	adds	r7, r3, r7
    1576:	2307      	movs	r3, #7
    1578:	439f      	bics	r7, r3
    157a:	2300      	movs	r3, #0
    157c:	9700      	str	r7, [sp, #0]
    157e:	001a      	movs	r2, r3
    1580:	5ce1      	ldrb	r1, [r4, r3]
    1582:	3234      	adds	r2, #52	; 0x34
    1584:	54a9      	strb	r1, [r5, r2]
    1586:	5ce2      	ldrb	r2, [r4, r3]
    1588:	2a00      	cmp	r2, #0
    158a:	d002      	beq.n	1592 <xTaskGenericCreate.part.5+0x5e>
    158c:	3301      	adds	r3, #1
    158e:	2b08      	cmp	r3, #8
    1590:	d1f5      	bne.n	157e <xTaskGenericCreate.part.5+0x4a>
    1592:	002b      	movs	r3, r5
    1594:	2200      	movs	r2, #0
    1596:	9f0a      	ldr	r7, [sp, #40]	; 0x28
    1598:	333b      	adds	r3, #59	; 0x3b
    159a:	701a      	strb	r2, [r3, #0]
    159c:	2f04      	cmp	r7, #4
    159e:	d900      	bls.n	15a2 <xTaskGenericCreate.part.5+0x6e>
    15a0:	2704      	movs	r7, #4
    15a2:	1d2b      	adds	r3, r5, #4
    15a4:	0018      	movs	r0, r3
    15a6:	62ef      	str	r7, [r5, #44]	; 0x2c
    15a8:	646f      	str	r7, [r5, #68]	; 0x44
    15aa:	4e39      	ldr	r6, [pc, #228]	; (1690 <xTaskGenericCreate.part.5+0x15c>)
    15ac:	9301      	str	r3, [sp, #4]
    15ae:	47b0      	blx	r6
    15b0:	0028      	movs	r0, r5
    15b2:	3018      	adds	r0, #24
    15b4:	47b0      	blx	r6
    15b6:	2305      	movs	r3, #5
    15b8:	1bdf      	subs	r7, r3, r7
    15ba:	612d      	str	r5, [r5, #16]
    15bc:	4b35      	ldr	r3, [pc, #212]	; (1694 <xTaskGenericCreate.part.5+0x160>)
    15be:	61af      	str	r7, [r5, #24]
    15c0:	626d      	str	r5, [r5, #36]	; 0x24
    15c2:	9a03      	ldr	r2, [sp, #12]
    15c4:	9902      	ldr	r1, [sp, #8]
    15c6:	9800      	ldr	r0, [sp, #0]
    15c8:	4798      	blx	r3
    15ca:	9b0b      	ldr	r3, [sp, #44]	; 0x2c
    15cc:	6028      	str	r0, [r5, #0]
    15ce:	2b00      	cmp	r3, #0
    15d0:	d000      	beq.n	15d4 <xTaskGenericCreate.part.5+0xa0>
    15d2:	601d      	str	r5, [r3, #0]
    15d4:	4b30      	ldr	r3, [pc, #192]	; (1698 <xTaskGenericCreate.part.5+0x164>)
    15d6:	4798      	blx	r3
    15d8:	4e30      	ldr	r6, [pc, #192]	; (169c <xTaskGenericCreate.part.5+0x168>)
    15da:	4c31      	ldr	r4, [pc, #196]	; (16a0 <xTaskGenericCreate.part.5+0x16c>)
    15dc:	69f3      	ldr	r3, [r6, #28]
    15de:	3301      	adds	r3, #1
    15e0:	61f3      	str	r3, [r6, #28]
    15e2:	6aa3      	ldr	r3, [r4, #40]	; 0x28
    15e4:	2b00      	cmp	r3, #0
    15e6:	d143      	bne.n	1670 <xTaskGenericCreate.part.5+0x13c>
    15e8:	62a5      	str	r5, [r4, #40]	; 0x28
    15ea:	69f3      	ldr	r3, [r6, #28]
    15ec:	2b01      	cmp	r3, #1
    15ee:	d11c      	bne.n	162a <xTaskGenericCreate.part.5+0xf6>
    15f0:	0020      	movs	r0, r4
    15f2:	4f2c      	ldr	r7, [pc, #176]	; (16a4 <xTaskGenericCreate.part.5+0x170>)
    15f4:	302c      	adds	r0, #44	; 0x2c
    15f6:	47b8      	blx	r7
    15f8:	0020      	movs	r0, r4
    15fa:	3040      	adds	r0, #64	; 0x40
    15fc:	47b8      	blx	r7
    15fe:	0020      	movs	r0, r4
    1600:	3054      	adds	r0, #84	; 0x54
    1602:	47b8      	blx	r7
    1604:	0020      	movs	r0, r4
    1606:	3068      	adds	r0, #104	; 0x68
    1608:	47b8      	blx	r7
    160a:	0020      	movs	r0, r4
    160c:	307c      	adds	r0, #124	; 0x7c
    160e:	47b8      	blx	r7
    1610:	4825      	ldr	r0, [pc, #148]	; (16a8 <xTaskGenericCreate.part.5+0x174>)
    1612:	47b8      	blx	r7
    1614:	4825      	ldr	r0, [pc, #148]	; (16ac <xTaskGenericCreate.part.5+0x178>)
    1616:	47b8      	blx	r7
    1618:	0020      	movs	r0, r4
    161a:	3014      	adds	r0, #20
    161c:	47b8      	blx	r7
    161e:	0020      	movs	r0, r4
    1620:	47b8      	blx	r7
    1622:	4b21      	ldr	r3, [pc, #132]	; (16a8 <xTaskGenericCreate.part.5+0x174>)
    1624:	6173      	str	r3, [r6, #20]
    1626:	4b21      	ldr	r3, [pc, #132]	; (16ac <xTaskGenericCreate.part.5+0x178>)
    1628:	61b3      	str	r3, [r6, #24]
    162a:	4c1c      	ldr	r4, [pc, #112]	; (169c <xTaskGenericCreate.part.5+0x168>)
    162c:	6aea      	ldr	r2, [r5, #44]	; 0x2c
    162e:	6ce3      	ldr	r3, [r4, #76]	; 0x4c
    1630:	3301      	adds	r3, #1
    1632:	64e3      	str	r3, [r4, #76]	; 0x4c
    1634:	63eb      	str	r3, [r5, #60]	; 0x3c
    1636:	6d23      	ldr	r3, [r4, #80]	; 0x50
    1638:	429a      	cmp	r2, r3
    163a:	d900      	bls.n	163e <xTaskGenericCreate.part.5+0x10a>
    163c:	6522      	str	r2, [r4, #80]	; 0x50
    163e:	2314      	movs	r3, #20
    1640:	4e17      	ldr	r6, [pc, #92]	; (16a0 <xTaskGenericCreate.part.5+0x16c>)
    1642:	4353      	muls	r3, r2
    1644:	0030      	movs	r0, r6
    1646:	302c      	adds	r0, #44	; 0x2c
    1648:	18c0      	adds	r0, r0, r3
    164a:	9901      	ldr	r1, [sp, #4]
    164c:	4b18      	ldr	r3, [pc, #96]	; (16b0 <xTaskGenericCreate.part.5+0x17c>)
    164e:	4798      	blx	r3
    1650:	4b18      	ldr	r3, [pc, #96]	; (16b4 <xTaskGenericCreate.part.5+0x180>)
    1652:	4798      	blx	r3
    1654:	6ca3      	ldr	r3, [r4, #72]	; 0x48
    1656:	2401      	movs	r4, #1
    1658:	2b00      	cmp	r3, #0
    165a:	d006      	beq.n	166a <xTaskGenericCreate.part.5+0x136>
    165c:	6ab3      	ldr	r3, [r6, #40]	; 0x28
    165e:	9a0a      	ldr	r2, [sp, #40]	; 0x28
    1660:	6adb      	ldr	r3, [r3, #44]	; 0x2c
    1662:	429a      	cmp	r2, r3
    1664:	d901      	bls.n	166a <xTaskGenericCreate.part.5+0x136>
    1666:	4b14      	ldr	r3, [pc, #80]	; (16b8 <xTaskGenericCreate.part.5+0x184>)
    1668:	4798      	blx	r3
    166a:	0020      	movs	r0, r4
    166c:	b005      	add	sp, #20
    166e:	bdf0      	pop	{r4, r5, r6, r7, pc}
    1670:	6cb3      	ldr	r3, [r6, #72]	; 0x48
    1672:	2b00      	cmp	r3, #0
    1674:	d1d9      	bne.n	162a <xTaskGenericCreate.part.5+0xf6>
    1676:	6aa3      	ldr	r3, [r4, #40]	; 0x28
    1678:	9a0a      	ldr	r2, [sp, #40]	; 0x28
    167a:	6adb      	ldr	r3, [r3, #44]	; 0x2c
    167c:	429a      	cmp	r2, r3
    167e:	d3d4      	bcc.n	162a <xTaskGenericCreate.part.5+0xf6>
    1680:	62a5      	str	r5, [r4, #40]	; 0x28
    1682:	e7d2      	b.n	162a <xTaskGenericCreate.part.5+0xf6>
    1684:	00000de5 	.word	0x00000de5
    1688:	00000e3d 	.word	0x00000e3d
    168c:	00001ff3 	.word	0x00001ff3
    1690:	00000beb 	.word	0x00000beb
    1694:	00000c8d 	.word	0x00000c8d
    1698:	00000cc9 	.word	0x00000cc9
    169c:	2000290c 	.word	0x2000290c
    16a0:	2000288c 	.word	0x2000288c
    16a4:	00000bd5 	.word	0x00000bd5
    16a8:	2000292c 	.word	0x2000292c
    16ac:	20002940 	.word	0x20002940
    16b0:	00000bf1 	.word	0x00000bf1
    16b4:	00000ce1 	.word	0x00000ce1
    16b8:	00000cb1 	.word	0x00000cb1

000016bc <xTaskGenericCreate>:
    16bc:	b530      	push	{r4, r5, lr}
    16be:	b085      	sub	sp, #20
    16c0:	9c08      	ldr	r4, [sp, #32]
    16c2:	2800      	cmp	r0, #0
    16c4:	d101      	bne.n	16ca <xTaskGenericCreate+0xe>
    16c6:	b672      	cpsid	i
    16c8:	e7fe      	b.n	16c8 <xTaskGenericCreate+0xc>
    16ca:	2c04      	cmp	r4, #4
    16cc:	d901      	bls.n	16d2 <xTaskGenericCreate+0x16>
    16ce:	b672      	cpsid	i
    16d0:	e7fe      	b.n	16d0 <xTaskGenericCreate+0x14>
    16d2:	9d0a      	ldr	r5, [sp, #40]	; 0x28
    16d4:	9400      	str	r4, [sp, #0]
    16d6:	9502      	str	r5, [sp, #8]
    16d8:	9d09      	ldr	r5, [sp, #36]	; 0x24
    16da:	4c02      	ldr	r4, [pc, #8]	; (16e4 <xTaskGenericCreate+0x28>)
    16dc:	9501      	str	r5, [sp, #4]
    16de:	47a0      	blx	r4
    16e0:	b005      	add	sp, #20
    16e2:	bd30      	pop	{r4, r5, pc}
    16e4:	00001535 	.word	0x00001535

000016e8 <vTaskStartScheduler>:
    16e8:	b530      	push	{r4, r5, lr}
    16ea:	2400      	movs	r4, #0
    16ec:	b085      	sub	sp, #20
    16ee:	9402      	str	r4, [sp, #8]
    16f0:	9401      	str	r4, [sp, #4]
    16f2:	9400      	str	r4, [sp, #0]
    16f4:	0023      	movs	r3, r4
    16f6:	2240      	movs	r2, #64	; 0x40
    16f8:	490a      	ldr	r1, [pc, #40]	; (1724 <vTaskStartScheduler+0x3c>)
    16fa:	480b      	ldr	r0, [pc, #44]	; (1728 <vTaskStartScheduler+0x40>)
    16fc:	4d0b      	ldr	r5, [pc, #44]	; (172c <vTaskStartScheduler+0x44>)
    16fe:	47a8      	blx	r5
    1700:	2801      	cmp	r0, #1
    1702:	d10b      	bne.n	171c <vTaskStartScheduler+0x34>
    1704:	4b0a      	ldr	r3, [pc, #40]	; (1730 <vTaskStartScheduler+0x48>)
    1706:	4798      	blx	r3
    1708:	2801      	cmp	r0, #1
    170a:	d107      	bne.n	171c <vTaskStartScheduler+0x34>
    170c:	b672      	cpsid	i
    170e:	4b09      	ldr	r3, [pc, #36]	; (1734 <vTaskStartScheduler+0x4c>)
    1710:	6498      	str	r0, [r3, #72]	; 0x48
    1712:	611c      	str	r4, [r3, #16]
    1714:	4b08      	ldr	r3, [pc, #32]	; (1738 <vTaskStartScheduler+0x50>)
    1716:	4798      	blx	r3
    1718:	b005      	add	sp, #20
    171a:	bd30      	pop	{r4, r5, pc}
    171c:	2800      	cmp	r0, #0
    171e:	d1fb      	bne.n	1718 <vTaskStartScheduler+0x30>
    1720:	b672      	cpsid	i
    1722:	e7fe      	b.n	1722 <vTaskStartScheduler+0x3a>
    1724:	00002063 	.word	0x00002063
    1728:	00001919 	.word	0x00001919
    172c:	00001535 	.word	0x00001535
    1730:	00001cd5 	.word	0x00001cd5
    1734:	2000290c 	.word	0x2000290c
    1738:	00000da5 	.word	0x00000da5

0000173c <vTaskSuspendAll>:
    173c:	4a02      	ldr	r2, [pc, #8]	; (1748 <vTaskSuspendAll+0xc>)
    173e:	6d53      	ldr	r3, [r2, #84]	; 0x54
    1740:	3301      	adds	r3, #1
    1742:	6553      	str	r3, [r2, #84]	; 0x54
    1744:	4770      	bx	lr
    1746:	46c0      	nop			; (mov r8, r8)
    1748:	2000290c 	.word	0x2000290c

0000174c <xTaskGetTickCount>:
    174c:	b510      	push	{r4, lr}
    174e:	4b04      	ldr	r3, [pc, #16]	; (1760 <xTaskGetTickCount+0x14>)
    1750:	4798      	blx	r3
    1752:	4b04      	ldr	r3, [pc, #16]	; (1764 <xTaskGetTickCount+0x18>)
    1754:	691c      	ldr	r4, [r3, #16]
    1756:	4b04      	ldr	r3, [pc, #16]	; (1768 <xTaskGetTickCount+0x1c>)
    1758:	4798      	blx	r3
    175a:	0020      	movs	r0, r4
    175c:	bd10      	pop	{r4, pc}
    175e:	46c0      	nop			; (mov r8, r8)
    1760:	00000cc9 	.word	0x00000cc9
    1764:	2000290c 	.word	0x2000290c
    1768:	00000ce1 	.word	0x00000ce1

0000176c <xTaskIncrementTick>:
    176c:	b5f7      	push	{r0, r1, r2, r4, r5, r6, r7, lr}
    176e:	4c33      	ldr	r4, [pc, #204]	; (183c <xTaskIncrementTick+0xd0>)
    1770:	6d63      	ldr	r3, [r4, #84]	; 0x54
    1772:	2b00      	cmp	r3, #0
    1774:	d144      	bne.n	1800 <xTaskIncrementTick+0x94>
    1776:	6923      	ldr	r3, [r4, #16]
    1778:	3301      	adds	r3, #1
    177a:	6123      	str	r3, [r4, #16]
    177c:	6923      	ldr	r3, [r4, #16]
    177e:	9300      	str	r3, [sp, #0]
    1780:	2b00      	cmp	r3, #0
    1782:	d10e      	bne.n	17a2 <xTaskIncrementTick+0x36>
    1784:	6963      	ldr	r3, [r4, #20]
    1786:	681b      	ldr	r3, [r3, #0]
    1788:	2b00      	cmp	r3, #0
    178a:	d001      	beq.n	1790 <xTaskIncrementTick+0x24>
    178c:	b672      	cpsid	i
    178e:	e7fe      	b.n	178e <xTaskIncrementTick+0x22>
    1790:	6963      	ldr	r3, [r4, #20]
    1792:	69a2      	ldr	r2, [r4, #24]
    1794:	6162      	str	r2, [r4, #20]
    1796:	61a3      	str	r3, [r4, #24]
    1798:	6da3      	ldr	r3, [r4, #88]	; 0x58
    179a:	3301      	adds	r3, #1
    179c:	65a3      	str	r3, [r4, #88]	; 0x58
    179e:	4b28      	ldr	r3, [pc, #160]	; (1840 <xTaskIncrementTick+0xd4>)
    17a0:	4798      	blx	r3
    17a2:	4b28      	ldr	r3, [pc, #160]	; (1844 <xTaskIncrementTick+0xd8>)
    17a4:	9a00      	ldr	r2, [sp, #0]
    17a6:	681b      	ldr	r3, [r3, #0]
    17a8:	2600      	movs	r6, #0
    17aa:	429a      	cmp	r2, r3
    17ac:	d336      	bcc.n	181c <xTaskIncrementTick+0xb0>
    17ae:	6963      	ldr	r3, [r4, #20]
    17b0:	681b      	ldr	r3, [r3, #0]
    17b2:	2b00      	cmp	r3, #0
    17b4:	d129      	bne.n	180a <xTaskIncrementTick+0x9e>
    17b6:	2201      	movs	r2, #1
    17b8:	4b22      	ldr	r3, [pc, #136]	; (1844 <xTaskIncrementTick+0xd8>)
    17ba:	4252      	negs	r2, r2
    17bc:	601a      	str	r2, [r3, #0]
    17be:	e02d      	b.n	181c <xTaskIncrementTick+0xb0>
    17c0:	1d2b      	adds	r3, r5, #4
    17c2:	0018      	movs	r0, r3
    17c4:	4f20      	ldr	r7, [pc, #128]	; (1848 <xTaskIncrementTick+0xdc>)
    17c6:	9301      	str	r3, [sp, #4]
    17c8:	47b8      	blx	r7
    17ca:	6aab      	ldr	r3, [r5, #40]	; 0x28
    17cc:	2b00      	cmp	r3, #0
    17ce:	d002      	beq.n	17d6 <xTaskIncrementTick+0x6a>
    17d0:	0028      	movs	r0, r5
    17d2:	3018      	adds	r0, #24
    17d4:	47b8      	blx	r7
    17d6:	6aeb      	ldr	r3, [r5, #44]	; 0x2c
    17d8:	6d22      	ldr	r2, [r4, #80]	; 0x50
    17da:	4293      	cmp	r3, r2
    17dc:	d900      	bls.n	17e0 <xTaskIncrementTick+0x74>
    17de:	6523      	str	r3, [r4, #80]	; 0x50
    17e0:	2214      	movs	r2, #20
    17e2:	4f1a      	ldr	r7, [pc, #104]	; (184c <xTaskIncrementTick+0xe0>)
    17e4:	4353      	muls	r3, r2
    17e6:	0038      	movs	r0, r7
    17e8:	302c      	adds	r0, #44	; 0x2c
    17ea:	18c0      	adds	r0, r0, r3
    17ec:	1d29      	adds	r1, r5, #4
    17ee:	4b18      	ldr	r3, [pc, #96]	; (1850 <xTaskIncrementTick+0xe4>)
    17f0:	4798      	blx	r3
    17f2:	6abb      	ldr	r3, [r7, #40]	; 0x28
    17f4:	6aea      	ldr	r2, [r5, #44]	; 0x2c
    17f6:	6adb      	ldr	r3, [r3, #44]	; 0x2c
    17f8:	429a      	cmp	r2, r3
    17fa:	d3d8      	bcc.n	17ae <xTaskIncrementTick+0x42>
    17fc:	2601      	movs	r6, #1
    17fe:	e7d6      	b.n	17ae <xTaskIncrementTick+0x42>
    1800:	6de3      	ldr	r3, [r4, #92]	; 0x5c
    1802:	2600      	movs	r6, #0
    1804:	3301      	adds	r3, #1
    1806:	65e3      	str	r3, [r4, #92]	; 0x5c
    1808:	e012      	b.n	1830 <xTaskIncrementTick+0xc4>
    180a:	6963      	ldr	r3, [r4, #20]
    180c:	9a00      	ldr	r2, [sp, #0]
    180e:	68db      	ldr	r3, [r3, #12]
    1810:	68dd      	ldr	r5, [r3, #12]
    1812:	686b      	ldr	r3, [r5, #4]
    1814:	429a      	cmp	r2, r3
    1816:	d2d3      	bcs.n	17c0 <xTaskIncrementTick+0x54>
    1818:	4a0a      	ldr	r2, [pc, #40]	; (1844 <xTaskIncrementTick+0xd8>)
    181a:	6013      	str	r3, [r2, #0]
    181c:	4b0b      	ldr	r3, [pc, #44]	; (184c <xTaskIncrementTick+0xe0>)
    181e:	6a9a      	ldr	r2, [r3, #40]	; 0x28
    1820:	6ad1      	ldr	r1, [r2, #44]	; 0x2c
    1822:	2214      	movs	r2, #20
    1824:	434a      	muls	r2, r1
    1826:	189b      	adds	r3, r3, r2
    1828:	6adb      	ldr	r3, [r3, #44]	; 0x2c
    182a:	2b01      	cmp	r3, #1
    182c:	d900      	bls.n	1830 <xTaskIncrementTick+0xc4>
    182e:	2601      	movs	r6, #1
    1830:	6e23      	ldr	r3, [r4, #96]	; 0x60
    1832:	2b00      	cmp	r3, #0
    1834:	d000      	beq.n	1838 <xTaskIncrementTick+0xcc>
    1836:	2601      	movs	r6, #1
    1838:	0030      	movs	r0, r6
    183a:	bdfe      	pop	{r1, r2, r3, r4, r5, r6, r7, pc}
    183c:	2000290c 	.word	0x2000290c
    1840:	000014c9 	.word	0x000014c9
    1844:	20000004 	.word	0x20000004
    1848:	00000c37 	.word	0x00000c37
    184c:	2000288c 	.word	0x2000288c
    1850:	00000bf1 	.word	0x00000bf1

00001854 <xTaskResumeAll>:
    1854:	b5f7      	push	{r0, r1, r2, r4, r5, r6, r7, lr}
    1856:	4c28      	ldr	r4, [pc, #160]	; (18f8 <xTaskResumeAll+0xa4>)
    1858:	6d63      	ldr	r3, [r4, #84]	; 0x54
    185a:	2b00      	cmp	r3, #0
    185c:	d101      	bne.n	1862 <xTaskResumeAll+0xe>
    185e:	b672      	cpsid	i
    1860:	e7fe      	b.n	1860 <xTaskResumeAll+0xc>
    1862:	4b26      	ldr	r3, [pc, #152]	; (18fc <xTaskResumeAll+0xa8>)
    1864:	4798      	blx	r3
    1866:	6d63      	ldr	r3, [r4, #84]	; 0x54
    1868:	3b01      	subs	r3, #1
    186a:	6563      	str	r3, [r4, #84]	; 0x54
    186c:	6d63      	ldr	r3, [r4, #84]	; 0x54
    186e:	2b00      	cmp	r3, #0
    1870:	d004      	beq.n	187c <xTaskResumeAll+0x28>
    1872:	2400      	movs	r4, #0
    1874:	4b22      	ldr	r3, [pc, #136]	; (1900 <xTaskResumeAll+0xac>)
    1876:	4798      	blx	r3
    1878:	0020      	movs	r0, r4
    187a:	bdfe      	pop	{r1, r2, r3, r4, r5, r6, r7, pc}
    187c:	69e3      	ldr	r3, [r4, #28]
    187e:	2b00      	cmp	r3, #0
    1880:	d0f7      	beq.n	1872 <xTaskResumeAll+0x1e>
    1882:	4d20      	ldr	r5, [pc, #128]	; (1904 <xTaskResumeAll+0xb0>)
    1884:	696b      	ldr	r3, [r5, #20]
    1886:	2b00      	cmp	r3, #0
    1888:	d108      	bne.n	189c <xTaskResumeAll+0x48>
    188a:	6de3      	ldr	r3, [r4, #92]	; 0x5c
    188c:	2b00      	cmp	r3, #0
    188e:	d130      	bne.n	18f2 <xTaskResumeAll+0x9e>
    1890:	6e24      	ldr	r4, [r4, #96]	; 0x60
    1892:	2c01      	cmp	r4, #1
    1894:	d1ed      	bne.n	1872 <xTaskResumeAll+0x1e>
    1896:	4b1c      	ldr	r3, [pc, #112]	; (1908 <xTaskResumeAll+0xb4>)
    1898:	4798      	blx	r3
    189a:	e7eb      	b.n	1874 <xTaskResumeAll+0x20>
    189c:	6a2b      	ldr	r3, [r5, #32]
    189e:	4f1b      	ldr	r7, [pc, #108]	; (190c <xTaskResumeAll+0xb8>)
    18a0:	68de      	ldr	r6, [r3, #12]
    18a2:	0030      	movs	r0, r6
    18a4:	3018      	adds	r0, #24
    18a6:	47b8      	blx	r7
    18a8:	1d33      	adds	r3, r6, #4
    18aa:	0018      	movs	r0, r3
    18ac:	9301      	str	r3, [sp, #4]
    18ae:	47b8      	blx	r7
    18b0:	6af3      	ldr	r3, [r6, #44]	; 0x2c
    18b2:	6d22      	ldr	r2, [r4, #80]	; 0x50
    18b4:	4293      	cmp	r3, r2
    18b6:	d900      	bls.n	18ba <xTaskResumeAll+0x66>
    18b8:	6523      	str	r3, [r4, #80]	; 0x50
    18ba:	2214      	movs	r2, #20
    18bc:	0028      	movs	r0, r5
    18be:	4353      	muls	r3, r2
    18c0:	302c      	adds	r0, #44	; 0x2c
    18c2:	18c0      	adds	r0, r0, r3
    18c4:	1d31      	adds	r1, r6, #4
    18c6:	4b12      	ldr	r3, [pc, #72]	; (1910 <xTaskResumeAll+0xbc>)
    18c8:	4798      	blx	r3
    18ca:	6aab      	ldr	r3, [r5, #40]	; 0x28
    18cc:	6af2      	ldr	r2, [r6, #44]	; 0x2c
    18ce:	6adb      	ldr	r3, [r3, #44]	; 0x2c
    18d0:	429a      	cmp	r2, r3
    18d2:	d3d6      	bcc.n	1882 <xTaskResumeAll+0x2e>
    18d4:	2301      	movs	r3, #1
    18d6:	6623      	str	r3, [r4, #96]	; 0x60
    18d8:	e7d3      	b.n	1882 <xTaskResumeAll+0x2e>
    18da:	4b0e      	ldr	r3, [pc, #56]	; (1914 <xTaskResumeAll+0xc0>)
    18dc:	4798      	blx	r3
    18de:	2800      	cmp	r0, #0
    18e0:	d000      	beq.n	18e4 <xTaskResumeAll+0x90>
    18e2:	6625      	str	r5, [r4, #96]	; 0x60
    18e4:	6de3      	ldr	r3, [r4, #92]	; 0x5c
    18e6:	3b01      	subs	r3, #1
    18e8:	65e3      	str	r3, [r4, #92]	; 0x5c
    18ea:	6de3      	ldr	r3, [r4, #92]	; 0x5c
    18ec:	2b00      	cmp	r3, #0
    18ee:	d1f4      	bne.n	18da <xTaskResumeAll+0x86>
    18f0:	e7ce      	b.n	1890 <xTaskResumeAll+0x3c>
    18f2:	2501      	movs	r5, #1
    18f4:	e7f9      	b.n	18ea <xTaskResumeAll+0x96>
    18f6:	46c0      	nop			; (mov r8, r8)
    18f8:	2000290c 	.word	0x2000290c
    18fc:	00000cc9 	.word	0x00000cc9
    1900:	00000ce1 	.word	0x00000ce1
    1904:	2000288c 	.word	0x2000288c
    1908:	00000cb1 	.word	0x00000cb1
    190c:	00000c37 	.word	0x00000c37
    1910:	00000bf1 	.word	0x00000bf1
    1914:	0000176d 	.word	0x0000176d

00001918 <prvIdleTask>:
    1918:	b510      	push	{r4, lr}
    191a:	4b0c      	ldr	r3, [pc, #48]	; (194c <prvIdleTask+0x34>)
    191c:	6adb      	ldr	r3, [r3, #44]	; 0x2c
    191e:	2b01      	cmp	r3, #1
    1920:	d901      	bls.n	1926 <prvIdleTask+0xe>
    1922:	4b0b      	ldr	r3, [pc, #44]	; (1950 <prvIdleTask+0x38>)
    1924:	4798      	blx	r3
    1926:	4c0b      	ldr	r4, [pc, #44]	; (1954 <prvIdleTask+0x3c>)
    1928:	47a0      	blx	r4
    192a:	2801      	cmp	r0, #1
    192c:	d9f5      	bls.n	191a <prvIdleTask+0x2>
    192e:	4b0a      	ldr	r3, [pc, #40]	; (1958 <prvIdleTask+0x40>)
    1930:	4798      	blx	r3
    1932:	4b0a      	ldr	r3, [pc, #40]	; (195c <prvIdleTask+0x44>)
    1934:	681a      	ldr	r2, [r3, #0]
    1936:	4b0a      	ldr	r3, [pc, #40]	; (1960 <prvIdleTask+0x48>)
    1938:	691b      	ldr	r3, [r3, #16]
    193a:	429a      	cmp	r2, r3
    193c:	d201      	bcs.n	1942 <prvIdleTask+0x2a>
    193e:	b672      	cpsid	i
    1940:	e7fe      	b.n	1940 <prvIdleTask+0x28>
    1942:	47a0      	blx	r4
    1944:	4b07      	ldr	r3, [pc, #28]	; (1964 <prvIdleTask+0x4c>)
    1946:	4798      	blx	r3
    1948:	e7e7      	b.n	191a <prvIdleTask+0x2>
    194a:	46c0      	nop			; (mov r8, r8)
    194c:	2000288c 	.word	0x2000288c
    1950:	00000cb1 	.word	0x00000cb1
    1954:	0000149d 	.word	0x0000149d
    1958:	0000173d 	.word	0x0000173d
    195c:	20000004 	.word	0x20000004
    1960:	2000290c 	.word	0x2000290c
    1964:	00001855 	.word	0x00001855

00001968 <vTaskSwitchContext>:
    1968:	4a16      	ldr	r2, [pc, #88]	; (19c4 <vTaskSwitchContext+0x5c>)
    196a:	b510      	push	{r4, lr}
    196c:	6d53      	ldr	r3, [r2, #84]	; 0x54
    196e:	2b00      	cmp	r3, #0
    1970:	d002      	beq.n	1978 <vTaskSwitchContext+0x10>
    1972:	2301      	movs	r3, #1
    1974:	6613      	str	r3, [r2, #96]	; 0x60
    1976:	bd10      	pop	{r4, pc}
    1978:	6613      	str	r3, [r2, #96]	; 0x60
    197a:	2314      	movs	r3, #20
    197c:	4912      	ldr	r1, [pc, #72]	; (19c8 <vTaskSwitchContext+0x60>)
    197e:	6d10      	ldr	r0, [r2, #80]	; 0x50
    1980:	4358      	muls	r0, r3
    1982:	1808      	adds	r0, r1, r0
    1984:	6ac0      	ldr	r0, [r0, #44]	; 0x2c
    1986:	2800      	cmp	r0, #0
    1988:	d012      	beq.n	19b0 <vTaskSwitchContext+0x48>
    198a:	6d14      	ldr	r4, [r2, #80]	; 0x50
    198c:	4363      	muls	r3, r4
    198e:	18ca      	adds	r2, r1, r3
    1990:	0013      	movs	r3, r2
    1992:	6b10      	ldr	r0, [r2, #48]	; 0x30
    1994:	3334      	adds	r3, #52	; 0x34
    1996:	6840      	ldr	r0, [r0, #4]
    1998:	6310      	str	r0, [r2, #48]	; 0x30
    199a:	4298      	cmp	r0, r3
    199c:	d101      	bne.n	19a2 <vTaskSwitchContext+0x3a>
    199e:	6843      	ldr	r3, [r0, #4]
    19a0:	6313      	str	r3, [r2, #48]	; 0x30
    19a2:	2314      	movs	r3, #20
    19a4:	4363      	muls	r3, r4
    19a6:	18cb      	adds	r3, r1, r3
    19a8:	6b1b      	ldr	r3, [r3, #48]	; 0x30
    19aa:	68db      	ldr	r3, [r3, #12]
    19ac:	628b      	str	r3, [r1, #40]	; 0x28
    19ae:	e7e2      	b.n	1976 <vTaskSwitchContext+0xe>
    19b0:	6d10      	ldr	r0, [r2, #80]	; 0x50
    19b2:	2800      	cmp	r0, #0
    19b4:	d101      	bne.n	19ba <vTaskSwitchContext+0x52>
    19b6:	b672      	cpsid	i
    19b8:	e7fe      	b.n	19b8 <vTaskSwitchContext+0x50>
    19ba:	6d10      	ldr	r0, [r2, #80]	; 0x50
    19bc:	3801      	subs	r0, #1
    19be:	6510      	str	r0, [r2, #80]	; 0x50
    19c0:	e7dd      	b.n	197e <vTaskSwitchContext+0x16>
    19c2:	46c0      	nop			; (mov r8, r8)
    19c4:	2000290c 	.word	0x2000290c
    19c8:	2000288c 	.word	0x2000288c

000019cc <vTaskPlaceOnEventList>:
    19cc:	b570      	push	{r4, r5, r6, lr}
    19ce:	000c      	movs	r4, r1
    19d0:	2800      	cmp	r0, #0
    19d2:	d101      	bne.n	19d8 <vTaskPlaceOnEventList+0xc>
    19d4:	b672      	cpsid	i
    19d6:	e7fe      	b.n	19d6 <vTaskPlaceOnEventList+0xa>
    19d8:	4d0b      	ldr	r5, [pc, #44]	; (1a08 <vTaskPlaceOnEventList+0x3c>)
    19da:	4b0c      	ldr	r3, [pc, #48]	; (1a0c <vTaskPlaceOnEventList+0x40>)
    19dc:	6aa9      	ldr	r1, [r5, #40]	; 0x28
    19de:	3118      	adds	r1, #24
    19e0:	4798      	blx	r3
    19e2:	6aa8      	ldr	r0, [r5, #40]	; 0x28
    19e4:	4b0a      	ldr	r3, [pc, #40]	; (1a10 <vTaskPlaceOnEventList+0x44>)
    19e6:	3004      	adds	r0, #4
    19e8:	4798      	blx	r3
    19ea:	1c63      	adds	r3, r4, #1
    19ec:	d105      	bne.n	19fa <vTaskPlaceOnEventList+0x2e>
    19ee:	6aa9      	ldr	r1, [r5, #40]	; 0x28
    19f0:	0028      	movs	r0, r5
    19f2:	3104      	adds	r1, #4
    19f4:	4b07      	ldr	r3, [pc, #28]	; (1a14 <vTaskPlaceOnEventList+0x48>)
    19f6:	4798      	blx	r3
    19f8:	bd70      	pop	{r4, r5, r6, pc}
    19fa:	4b07      	ldr	r3, [pc, #28]	; (1a18 <vTaskPlaceOnEventList+0x4c>)
    19fc:	6918      	ldr	r0, [r3, #16]
    19fe:	4b07      	ldr	r3, [pc, #28]	; (1a1c <vTaskPlaceOnEventList+0x50>)
    1a00:	1820      	adds	r0, r4, r0
    1a02:	4798      	blx	r3
    1a04:	e7f8      	b.n	19f8 <vTaskPlaceOnEventList+0x2c>
    1a06:	46c0      	nop			; (mov r8, r8)
    1a08:	2000288c 	.word	0x2000288c
    1a0c:	00000c09 	.word	0x00000c09
    1a10:	00000c37 	.word	0x00000c37
    1a14:	00000bf1 	.word	0x00000bf1
    1a18:	2000290c 	.word	0x2000290c
    1a1c:	000014f1 	.word	0x000014f1

00001a20 <vTaskPlaceOnEventListRestricted>:
    1a20:	b570      	push	{r4, r5, r6, lr}
    1a22:	000c      	movs	r4, r1
    1a24:	2800      	cmp	r0, #0
    1a26:	d101      	bne.n	1a2c <vTaskPlaceOnEventListRestricted+0xc>
    1a28:	b672      	cpsid	i
    1a2a:	e7fe      	b.n	1a2a <vTaskPlaceOnEventListRestricted+0xa>
    1a2c:	4d07      	ldr	r5, [pc, #28]	; (1a4c <vTaskPlaceOnEventListRestricted+0x2c>)
    1a2e:	4b08      	ldr	r3, [pc, #32]	; (1a50 <vTaskPlaceOnEventListRestricted+0x30>)
    1a30:	6aa9      	ldr	r1, [r5, #40]	; 0x28
    1a32:	3118      	adds	r1, #24
    1a34:	4798      	blx	r3
    1a36:	6aa8      	ldr	r0, [r5, #40]	; 0x28
    1a38:	4b06      	ldr	r3, [pc, #24]	; (1a54 <vTaskPlaceOnEventListRestricted+0x34>)
    1a3a:	3004      	adds	r0, #4
    1a3c:	4798      	blx	r3
    1a3e:	4b06      	ldr	r3, [pc, #24]	; (1a58 <vTaskPlaceOnEventListRestricted+0x38>)
    1a40:	6918      	ldr	r0, [r3, #16]
    1a42:	4b06      	ldr	r3, [pc, #24]	; (1a5c <vTaskPlaceOnEventListRestricted+0x3c>)
    1a44:	1900      	adds	r0, r0, r4
    1a46:	4798      	blx	r3
    1a48:	bd70      	pop	{r4, r5, r6, pc}
    1a4a:	46c0      	nop			; (mov r8, r8)
    1a4c:	2000288c 	.word	0x2000288c
    1a50:	00000bf1 	.word	0x00000bf1
    1a54:	00000c37 	.word	0x00000c37
    1a58:	2000290c 	.word	0x2000290c
    1a5c:	000014f1 	.word	0x000014f1

00001a60 <xTaskRemoveFromEventList>:
    1a60:	b5f8      	push	{r3, r4, r5, r6, r7, lr}
    1a62:	68c3      	ldr	r3, [r0, #12]
    1a64:	68dc      	ldr	r4, [r3, #12]
    1a66:	2c00      	cmp	r4, #0
    1a68:	d101      	bne.n	1a6e <xTaskRemoveFromEventList+0xe>
    1a6a:	b672      	cpsid	i
    1a6c:	e7fe      	b.n	1a6c <xTaskRemoveFromEventList+0xc>
    1a6e:	0027      	movs	r7, r4
    1a70:	3718      	adds	r7, #24
    1a72:	4b12      	ldr	r3, [pc, #72]	; (1abc <xTaskRemoveFromEventList+0x5c>)
    1a74:	0038      	movs	r0, r7
    1a76:	4798      	blx	r3
    1a78:	4d11      	ldr	r5, [pc, #68]	; (1ac0 <xTaskRemoveFromEventList+0x60>)
    1a7a:	4e12      	ldr	r6, [pc, #72]	; (1ac4 <xTaskRemoveFromEventList+0x64>)
    1a7c:	6d6b      	ldr	r3, [r5, #84]	; 0x54
    1a7e:	2b00      	cmp	r3, #0
    1a80:	d119      	bne.n	1ab6 <xTaskRemoveFromEventList+0x56>
    1a82:	1d27      	adds	r7, r4, #4
    1a84:	4b0d      	ldr	r3, [pc, #52]	; (1abc <xTaskRemoveFromEventList+0x5c>)
    1a86:	0038      	movs	r0, r7
    1a88:	4798      	blx	r3
    1a8a:	6ae2      	ldr	r2, [r4, #44]	; 0x2c
    1a8c:	6d2b      	ldr	r3, [r5, #80]	; 0x50
    1a8e:	429a      	cmp	r2, r3
    1a90:	d900      	bls.n	1a94 <xTaskRemoveFromEventList+0x34>
    1a92:	652a      	str	r2, [r5, #80]	; 0x50
    1a94:	2314      	movs	r3, #20
    1a96:	0030      	movs	r0, r6
    1a98:	4353      	muls	r3, r2
    1a9a:	302c      	adds	r0, #44	; 0x2c
    1a9c:	18c0      	adds	r0, r0, r3
    1a9e:	4b0a      	ldr	r3, [pc, #40]	; (1ac8 <xTaskRemoveFromEventList+0x68>)
    1aa0:	0039      	movs	r1, r7
    1aa2:	4798      	blx	r3
    1aa4:	6ab3      	ldr	r3, [r6, #40]	; 0x28
    1aa6:	6ae2      	ldr	r2, [r4, #44]	; 0x2c
    1aa8:	6adb      	ldr	r3, [r3, #44]	; 0x2c
    1aaa:	2000      	movs	r0, #0
    1aac:	429a      	cmp	r2, r3
    1aae:	d901      	bls.n	1ab4 <xTaskRemoveFromEventList+0x54>
    1ab0:	3001      	adds	r0, #1
    1ab2:	6628      	str	r0, [r5, #96]	; 0x60
    1ab4:	bdf8      	pop	{r3, r4, r5, r6, r7, pc}
    1ab6:	0030      	movs	r0, r6
    1ab8:	3014      	adds	r0, #20
    1aba:	e7f0      	b.n	1a9e <xTaskRemoveFromEventList+0x3e>
    1abc:	00000c37 	.word	0x00000c37
    1ac0:	2000290c 	.word	0x2000290c
    1ac4:	2000288c 	.word	0x2000288c
    1ac8:	00000bf1 	.word	0x00000bf1

00001acc <vTaskSetTimeOutState>:
    1acc:	2800      	cmp	r0, #0
    1ace:	d101      	bne.n	1ad4 <vTaskSetTimeOutState+0x8>
    1ad0:	b672      	cpsid	i
    1ad2:	e7fe      	b.n	1ad2 <vTaskSetTimeOutState+0x6>
    1ad4:	4b02      	ldr	r3, [pc, #8]	; (1ae0 <vTaskSetTimeOutState+0x14>)
    1ad6:	6d9a      	ldr	r2, [r3, #88]	; 0x58
    1ad8:	691b      	ldr	r3, [r3, #16]
    1ada:	6002      	str	r2, [r0, #0]
    1adc:	6043      	str	r3, [r0, #4]
    1ade:	4770      	bx	lr
    1ae0:	2000290c 	.word	0x2000290c

00001ae4 <xTaskCheckForTimeOut>:
    1ae4:	b570      	push	{r4, r5, r6, lr}
    1ae6:	0004      	movs	r4, r0
    1ae8:	000d      	movs	r5, r1
    1aea:	2800      	cmp	r0, #0
    1aec:	d101      	bne.n	1af2 <xTaskCheckForTimeOut+0xe>
    1aee:	b672      	cpsid	i
    1af0:	e7fe      	b.n	1af0 <xTaskCheckForTimeOut+0xc>
    1af2:	2900      	cmp	r1, #0
    1af4:	d101      	bne.n	1afa <xTaskCheckForTimeOut+0x16>
    1af6:	b672      	cpsid	i
    1af8:	e7fe      	b.n	1af8 <xTaskCheckForTimeOut+0x14>
    1afa:	4b0f      	ldr	r3, [pc, #60]	; (1b38 <xTaskCheckForTimeOut+0x54>)
    1afc:	4798      	blx	r3
    1afe:	4a0f      	ldr	r2, [pc, #60]	; (1b3c <xTaskCheckForTimeOut+0x58>)
    1b00:	682b      	ldr	r3, [r5, #0]
    1b02:	6911      	ldr	r1, [r2, #16]
    1b04:	2600      	movs	r6, #0
    1b06:	1c58      	adds	r0, r3, #1
    1b08:	d012      	beq.n	1b30 <xTaskCheckForTimeOut+0x4c>
    1b0a:	6d90      	ldr	r0, [r2, #88]	; 0x58
    1b0c:	6826      	ldr	r6, [r4, #0]
    1b0e:	6862      	ldr	r2, [r4, #4]
    1b10:	4286      	cmp	r6, r0
    1b12:	d002      	beq.n	1b1a <xTaskCheckForTimeOut+0x36>
    1b14:	2601      	movs	r6, #1
    1b16:	4291      	cmp	r1, r2
    1b18:	d20a      	bcs.n	1b30 <xTaskCheckForTimeOut+0x4c>
    1b1a:	1a88      	subs	r0, r1, r2
    1b1c:	2601      	movs	r6, #1
    1b1e:	4283      	cmp	r3, r0
    1b20:	d906      	bls.n	1b30 <xTaskCheckForTimeOut+0x4c>
    1b22:	1a5b      	subs	r3, r3, r1
    1b24:	189b      	adds	r3, r3, r2
    1b26:	602b      	str	r3, [r5, #0]
    1b28:	0020      	movs	r0, r4
    1b2a:	4b05      	ldr	r3, [pc, #20]	; (1b40 <xTaskCheckForTimeOut+0x5c>)
    1b2c:	4798      	blx	r3
    1b2e:	2600      	movs	r6, #0
    1b30:	4b04      	ldr	r3, [pc, #16]	; (1b44 <xTaskCheckForTimeOut+0x60>)
    1b32:	4798      	blx	r3
    1b34:	0030      	movs	r0, r6
    1b36:	bd70      	pop	{r4, r5, r6, pc}
    1b38:	00000cc9 	.word	0x00000cc9
    1b3c:	2000290c 	.word	0x2000290c
    1b40:	00001acd 	.word	0x00001acd
    1b44:	00000ce1 	.word	0x00000ce1

00001b48 <vTaskMissedYield>:
    1b48:	2201      	movs	r2, #1
    1b4a:	4b01      	ldr	r3, [pc, #4]	; (1b50 <vTaskMissedYield+0x8>)
    1b4c:	661a      	str	r2, [r3, #96]	; 0x60
    1b4e:	4770      	bx	lr
    1b50:	2000290c 	.word	0x2000290c

00001b54 <xTaskGetCurrentTaskHandle>:
    1b54:	4b01      	ldr	r3, [pc, #4]	; (1b5c <xTaskGetCurrentTaskHandle+0x8>)
    1b56:	6a98      	ldr	r0, [r3, #40]	; 0x28
    1b58:	4770      	bx	lr
    1b5a:	46c0      	nop			; (mov r8, r8)
    1b5c:	2000288c 	.word	0x2000288c

00001b60 <xTaskGetSchedulerState>:
    1b60:	4b04      	ldr	r3, [pc, #16]	; (1b74 <xTaskGetSchedulerState+0x14>)
    1b62:	2001      	movs	r0, #1
    1b64:	6c9a      	ldr	r2, [r3, #72]	; 0x48
    1b66:	2a00      	cmp	r2, #0
    1b68:	d003      	beq.n	1b72 <xTaskGetSchedulerState+0x12>
    1b6a:	6d58      	ldr	r0, [r3, #84]	; 0x54
    1b6c:	4243      	negs	r3, r0
    1b6e:	4158      	adcs	r0, r3
    1b70:	0040      	lsls	r0, r0, #1
    1b72:	4770      	bx	lr
    1b74:	2000290c 	.word	0x2000290c

00001b78 <vTaskPriorityInherit>:
    1b78:	b570      	push	{r4, r5, r6, lr}
    1b7a:	1e05      	subs	r5, r0, #0
    1b7c:	d029      	beq.n	1bd2 <vTaskPriorityInherit+0x5a>
    1b7e:	4c17      	ldr	r4, [pc, #92]	; (1bdc <vTaskPriorityInherit+0x64>)
    1b80:	6ac0      	ldr	r0, [r0, #44]	; 0x2c
    1b82:	6aa3      	ldr	r3, [r4, #40]	; 0x28
    1b84:	6adb      	ldr	r3, [r3, #44]	; 0x2c
    1b86:	4298      	cmp	r0, r3
    1b88:	d223      	bcs.n	1bd2 <vTaskPriorityInherit+0x5a>
    1b8a:	69ab      	ldr	r3, [r5, #24]
    1b8c:	2b00      	cmp	r3, #0
    1b8e:	db04      	blt.n	1b9a <vTaskPriorityInherit+0x22>
    1b90:	2105      	movs	r1, #5
    1b92:	6aa3      	ldr	r3, [r4, #40]	; 0x28
    1b94:	6adb      	ldr	r3, [r3, #44]	; 0x2c
    1b96:	1ac9      	subs	r1, r1, r3
    1b98:	61a9      	str	r1, [r5, #24]
    1b9a:	2214      	movs	r2, #20
    1b9c:	0023      	movs	r3, r4
    1b9e:	4342      	muls	r2, r0
    1ba0:	332c      	adds	r3, #44	; 0x2c
    1ba2:	189b      	adds	r3, r3, r2
    1ba4:	696a      	ldr	r2, [r5, #20]
    1ba6:	429a      	cmp	r2, r3
    1ba8:	d114      	bne.n	1bd4 <vTaskPriorityInherit+0x5c>
    1baa:	1d2e      	adds	r6, r5, #4
    1bac:	4b0c      	ldr	r3, [pc, #48]	; (1be0 <vTaskPriorityInherit+0x68>)
    1bae:	0030      	movs	r0, r6
    1bb0:	4798      	blx	r3
    1bb2:	6aa3      	ldr	r3, [r4, #40]	; 0x28
    1bb4:	4a0b      	ldr	r2, [pc, #44]	; (1be4 <vTaskPriorityInherit+0x6c>)
    1bb6:	6adb      	ldr	r3, [r3, #44]	; 0x2c
    1bb8:	6d11      	ldr	r1, [r2, #80]	; 0x50
    1bba:	62eb      	str	r3, [r5, #44]	; 0x2c
    1bbc:	428b      	cmp	r3, r1
    1bbe:	d900      	bls.n	1bc2 <vTaskPriorityInherit+0x4a>
    1bc0:	6513      	str	r3, [r2, #80]	; 0x50
    1bc2:	0020      	movs	r0, r4
    1bc4:	2414      	movs	r4, #20
    1bc6:	4363      	muls	r3, r4
    1bc8:	302c      	adds	r0, #44	; 0x2c
    1bca:	18c0      	adds	r0, r0, r3
    1bcc:	0031      	movs	r1, r6
    1bce:	4b06      	ldr	r3, [pc, #24]	; (1be8 <vTaskPriorityInherit+0x70>)
    1bd0:	4798      	blx	r3
    1bd2:	bd70      	pop	{r4, r5, r6, pc}
    1bd4:	6aa3      	ldr	r3, [r4, #40]	; 0x28
    1bd6:	6adb      	ldr	r3, [r3, #44]	; 0x2c
    1bd8:	62eb      	str	r3, [r5, #44]	; 0x2c
    1bda:	e7fa      	b.n	1bd2 <vTaskPriorityInherit+0x5a>
    1bdc:	2000288c 	.word	0x2000288c
    1be0:	00000c37 	.word	0x00000c37
    1be4:	2000290c 	.word	0x2000290c
    1be8:	00000bf1 	.word	0x00000bf1

00001bec <vTaskPriorityDisinherit>:
    1bec:	b570      	push	{r4, r5, r6, lr}
    1bee:	1e04      	subs	r4, r0, #0
    1bf0:	d01c      	beq.n	1c2c <vTaskPriorityDisinherit+0x40>
    1bf2:	6ac3      	ldr	r3, [r0, #44]	; 0x2c
    1bf4:	6c42      	ldr	r2, [r0, #68]	; 0x44
    1bf6:	4293      	cmp	r3, r2
    1bf8:	d018      	beq.n	1c2c <vTaskPriorityDisinherit+0x40>
    1bfa:	1d05      	adds	r5, r0, #4
    1bfc:	4b0c      	ldr	r3, [pc, #48]	; (1c30 <vTaskPriorityDisinherit+0x44>)
    1bfe:	0028      	movs	r0, r5
    1c00:	4798      	blx	r3
    1c02:	6c60      	ldr	r0, [r4, #68]	; 0x44
    1c04:	69a3      	ldr	r3, [r4, #24]
    1c06:	62e0      	str	r0, [r4, #44]	; 0x2c
    1c08:	2b00      	cmp	r3, #0
    1c0a:	db02      	blt.n	1c12 <vTaskPriorityDisinherit+0x26>
    1c0c:	2305      	movs	r3, #5
    1c0e:	1a1b      	subs	r3, r3, r0
    1c10:	61a3      	str	r3, [r4, #24]
    1c12:	4b08      	ldr	r3, [pc, #32]	; (1c34 <vTaskPriorityDisinherit+0x48>)
    1c14:	6d1a      	ldr	r2, [r3, #80]	; 0x50
    1c16:	4290      	cmp	r0, r2
    1c18:	d900      	bls.n	1c1c <vTaskPriorityDisinherit+0x30>
    1c1a:	6518      	str	r0, [r3, #80]	; 0x50
    1c1c:	2214      	movs	r2, #20
    1c1e:	4342      	muls	r2, r0
    1c20:	4805      	ldr	r0, [pc, #20]	; (1c38 <vTaskPriorityDisinherit+0x4c>)
    1c22:	0029      	movs	r1, r5
    1c24:	302c      	adds	r0, #44	; 0x2c
    1c26:	1880      	adds	r0, r0, r2
    1c28:	4b04      	ldr	r3, [pc, #16]	; (1c3c <vTaskPriorityDisinherit+0x50>)
    1c2a:	4798      	blx	r3
    1c2c:	bd70      	pop	{r4, r5, r6, pc}
    1c2e:	46c0      	nop			; (mov r8, r8)
    1c30:	00000c37 	.word	0x00000c37
    1c34:	2000290c 	.word	0x2000290c
    1c38:	2000288c 	.word	0x2000288c
    1c3c:	00000bf1 	.word	0x00000bf1

00001c40 <prvCheckForValidListAndQueue>:
    1c40:	b5f7      	push	{r0, r1, r2, r4, r5, r6, r7, lr}
    1c42:	4b0f      	ldr	r3, [pc, #60]	; (1c80 <prvCheckForValidListAndQueue+0x40>)
    1c44:	4798      	blx	r3
    1c46:	4c0f      	ldr	r4, [pc, #60]	; (1c84 <prvCheckForValidListAndQueue+0x44>)
    1c48:	6823      	ldr	r3, [r4, #0]
    1c4a:	9301      	str	r3, [sp, #4]
    1c4c:	2b00      	cmp	r3, #0
    1c4e:	d111      	bne.n	1c74 <prvCheckForValidListAndQueue+0x34>
    1c50:	0025      	movs	r5, r4
    1c52:	1d26      	adds	r6, r4, #4
    1c54:	0030      	movs	r0, r6
    1c56:	4f0c      	ldr	r7, [pc, #48]	; (1c88 <prvCheckForValidListAndQueue+0x48>)
    1c58:	3518      	adds	r5, #24
    1c5a:	47b8      	blx	r7
    1c5c:	0028      	movs	r0, r5
    1c5e:	47b8      	blx	r7
    1c60:	9a01      	ldr	r2, [sp, #4]
    1c62:	210c      	movs	r1, #12
    1c64:	2006      	movs	r0, #6
    1c66:	4b09      	ldr	r3, [pc, #36]	; (1c8c <prvCheckForValidListAndQueue+0x4c>)
    1c68:	62e6      	str	r6, [r4, #44]	; 0x2c
    1c6a:	6325      	str	r5, [r4, #48]	; 0x30
    1c6c:	4798      	blx	r3
    1c6e:	2800      	cmp	r0, #0
    1c70:	d003      	beq.n	1c7a <prvCheckForValidListAndQueue+0x3a>
    1c72:	6020      	str	r0, [r4, #0]
    1c74:	4b06      	ldr	r3, [pc, #24]	; (1c90 <prvCheckForValidListAndQueue+0x50>)
    1c76:	4798      	blx	r3
    1c78:	bdf7      	pop	{r0, r1, r2, r4, r5, r6, r7, pc}
    1c7a:	b672      	cpsid	i
    1c7c:	e7fe      	b.n	1c7c <prvCheckForValidListAndQueue+0x3c>
    1c7e:	46c0      	nop			; (mov r8, r8)
    1c80:	00000cc9 	.word	0x00000cc9
    1c84:	20002970 	.word	0x20002970
    1c88:	00000bd5 	.word	0x00000bd5
    1c8c:	00001039 	.word	0x00001039
    1c90:	00000ce1 	.word	0x00000ce1

00001c94 <prvInsertTimerInActiveList>:
    1c94:	b510      	push	{r4, lr}
    1c96:	6041      	str	r1, [r0, #4]
    1c98:	6100      	str	r0, [r0, #16]
    1c9a:	4291      	cmp	r1, r2
    1c9c:	d80c      	bhi.n	1cb8 <prvInsertTimerInActiveList+0x24>
    1c9e:	1ad2      	subs	r2, r2, r3
    1ca0:	6983      	ldr	r3, [r0, #24]
    1ca2:	2401      	movs	r4, #1
    1ca4:	429a      	cmp	r2, r3
    1ca6:	d205      	bcs.n	1cb4 <prvInsertTimerInActiveList+0x20>
    1ca8:	4b08      	ldr	r3, [pc, #32]	; (1ccc <prvInsertTimerInActiveList+0x38>)
    1caa:	1d01      	adds	r1, r0, #4
    1cac:	6b18      	ldr	r0, [r3, #48]	; 0x30
    1cae:	4b08      	ldr	r3, [pc, #32]	; (1cd0 <prvInsertTimerInActiveList+0x3c>)
    1cb0:	4798      	blx	r3
    1cb2:	2400      	movs	r4, #0
    1cb4:	0020      	movs	r0, r4
    1cb6:	bd10      	pop	{r4, pc}
    1cb8:	429a      	cmp	r2, r3
    1cba:	d202      	bcs.n	1cc2 <prvInsertTimerInActiveList+0x2e>
    1cbc:	2401      	movs	r4, #1
    1cbe:	4299      	cmp	r1, r3
    1cc0:	d2f8      	bcs.n	1cb4 <prvInsertTimerInActiveList+0x20>
    1cc2:	4b02      	ldr	r3, [pc, #8]	; (1ccc <prvInsertTimerInActiveList+0x38>)
    1cc4:	1d01      	adds	r1, r0, #4
    1cc6:	6ad8      	ldr	r0, [r3, #44]	; 0x2c
    1cc8:	e7f1      	b.n	1cae <prvInsertTimerInActiveList+0x1a>
    1cca:	46c0      	nop			; (mov r8, r8)
    1ccc:	20002970 	.word	0x20002970
    1cd0:	00000c09 	.word	0x00000c09

00001cd4 <xTimerCreateTimerTask>:
    1cd4:	b51f      	push	{r0, r1, r2, r3, r4, lr}
    1cd6:	4b0b      	ldr	r3, [pc, #44]	; (1d04 <xTimerCreateTimerTask+0x30>)
    1cd8:	4798      	blx	r3
    1cda:	4b0b      	ldr	r3, [pc, #44]	; (1d08 <xTimerCreateTimerTask+0x34>)
    1cdc:	681b      	ldr	r3, [r3, #0]
    1cde:	2b00      	cmp	r3, #0
    1ce0:	d00c      	beq.n	1cfc <xTimerCreateTimerTask+0x28>
    1ce2:	2300      	movs	r3, #0
    1ce4:	2202      	movs	r2, #2
    1ce6:	9303      	str	r3, [sp, #12]
    1ce8:	9200      	str	r2, [sp, #0]
    1cea:	9302      	str	r3, [sp, #8]
    1cec:	9301      	str	r3, [sp, #4]
    1cee:	323e      	adds	r2, #62	; 0x3e
    1cf0:	4906      	ldr	r1, [pc, #24]	; (1d0c <xTimerCreateTimerTask+0x38>)
    1cf2:	4807      	ldr	r0, [pc, #28]	; (1d10 <xTimerCreateTimerTask+0x3c>)
    1cf4:	4c07      	ldr	r4, [pc, #28]	; (1d14 <xTimerCreateTimerTask+0x40>)
    1cf6:	47a0      	blx	r4
    1cf8:	2800      	cmp	r0, #0
    1cfa:	d101      	bne.n	1d00 <xTimerCreateTimerTask+0x2c>
    1cfc:	b672      	cpsid	i
    1cfe:	e7fe      	b.n	1cfe <xTimerCreateTimerTask+0x2a>
    1d00:	b004      	add	sp, #16
    1d02:	bd10      	pop	{r4, pc}
    1d04:	00001c41 	.word	0x00001c41
    1d08:	20002970 	.word	0x20002970
    1d0c:	0000207a 	.word	0x0000207a
    1d10:	00001e19 	.word	0x00001e19
    1d14:	000016bd 	.word	0x000016bd

00001d18 <xTimerCreate>:
    1d18:	b5f7      	push	{r0, r1, r2, r4, r5, r6, r7, lr}
    1d1a:	0007      	movs	r7, r0
    1d1c:	000d      	movs	r5, r1
    1d1e:	0016      	movs	r6, r2
    1d20:	9301      	str	r3, [sp, #4]
    1d22:	2900      	cmp	r1, #0
    1d24:	d012      	beq.n	1d4c <xTimerCreate+0x34>
    1d26:	202c      	movs	r0, #44	; 0x2c
    1d28:	4b09      	ldr	r3, [pc, #36]	; (1d50 <xTimerCreate+0x38>)
    1d2a:	4798      	blx	r3
    1d2c:	1e04      	subs	r4, r0, #0
    1d2e:	d00b      	beq.n	1d48 <xTimerCreate+0x30>
    1d30:	4b08      	ldr	r3, [pc, #32]	; (1d54 <xTimerCreate+0x3c>)
    1d32:	4798      	blx	r3
    1d34:	9b01      	ldr	r3, [sp, #4]
    1d36:	6027      	str	r7, [r4, #0]
    1d38:	6223      	str	r3, [r4, #32]
    1d3a:	9b08      	ldr	r3, [sp, #32]
    1d3c:	61a5      	str	r5, [r4, #24]
    1d3e:	6263      	str	r3, [r4, #36]	; 0x24
    1d40:	61e6      	str	r6, [r4, #28]
    1d42:	1d20      	adds	r0, r4, #4
    1d44:	4b04      	ldr	r3, [pc, #16]	; (1d58 <xTimerCreate+0x40>)
    1d46:	4798      	blx	r3
    1d48:	0020      	movs	r0, r4
    1d4a:	bdfe      	pop	{r1, r2, r3, r4, r5, r6, r7, pc}
    1d4c:	b672      	cpsid	i
    1d4e:	e7fe      	b.n	1d4e <xTimerCreate+0x36>
    1d50:	00000de5 	.word	0x00000de5
    1d54:	00001c41 	.word	0x00001c41
    1d58:	00000beb 	.word	0x00000beb

00001d5c <xTimerGenericCommand>:
    1d5c:	b5f0      	push	{r4, r5, r6, r7, lr}
    1d5e:	4d0f      	ldr	r5, [pc, #60]	; (1d9c <xTimerGenericCommand+0x40>)
    1d60:	0006      	movs	r6, r0
    1d62:	682c      	ldr	r4, [r5, #0]
    1d64:	0017      	movs	r7, r2
    1d66:	b085      	sub	sp, #20
    1d68:	001a      	movs	r2, r3
    1d6a:	1e20      	subs	r0, r4, #0
    1d6c:	d00f      	beq.n	1d8e <xTimerGenericCommand+0x32>
    1d6e:	9101      	str	r1, [sp, #4]
    1d70:	9702      	str	r7, [sp, #8]
    1d72:	9603      	str	r6, [sp, #12]
    1d74:	2905      	cmp	r1, #5
    1d76:	dc0c      	bgt.n	1d92 <xTimerGenericCommand+0x36>
    1d78:	4b09      	ldr	r3, [pc, #36]	; (1da0 <xTimerGenericCommand+0x44>)
    1d7a:	4798      	blx	r3
    1d7c:	4c09      	ldr	r4, [pc, #36]	; (1da4 <xTimerGenericCommand+0x48>)
    1d7e:	2300      	movs	r3, #0
    1d80:	9a0a      	ldr	r2, [sp, #40]	; 0x28
    1d82:	2802      	cmp	r0, #2
    1d84:	d000      	beq.n	1d88 <xTimerGenericCommand+0x2c>
    1d86:	001a      	movs	r2, r3
    1d88:	6828      	ldr	r0, [r5, #0]
    1d8a:	a901      	add	r1, sp, #4
    1d8c:	47a0      	blx	r4
    1d8e:	b005      	add	sp, #20
    1d90:	bdf0      	pop	{r4, r5, r6, r7, pc}
    1d92:	0020      	movs	r0, r4
    1d94:	2300      	movs	r3, #0
    1d96:	a901      	add	r1, sp, #4
    1d98:	4c03      	ldr	r4, [pc, #12]	; (1da8 <xTimerGenericCommand+0x4c>)
    1d9a:	e7f7      	b.n	1d8c <xTimerGenericCommand+0x30>
    1d9c:	20002970 	.word	0x20002970
    1da0:	00001b61 	.word	0x00001b61
    1da4:	00001091 	.word	0x00001091
    1da8:	0000123d 	.word	0x0000123d

00001dac <prvSwitchTimerLists>:
    1dac:	b5f7      	push	{r0, r1, r2, r4, r5, r6, r7, lr}
    1dae:	4d16      	ldr	r5, [pc, #88]	; (1e08 <prvSwitchTimerLists+0x5c>)
    1db0:	6aeb      	ldr	r3, [r5, #44]	; 0x2c
    1db2:	681a      	ldr	r2, [r3, #0]
    1db4:	2a00      	cmp	r2, #0
    1db6:	d103      	bne.n	1dc0 <prvSwitchTimerLists+0x14>
    1db8:	6b2a      	ldr	r2, [r5, #48]	; 0x30
    1dba:	62ea      	str	r2, [r5, #44]	; 0x2c
    1dbc:	632b      	str	r3, [r5, #48]	; 0x30
    1dbe:	bdf7      	pop	{r0, r1, r2, r4, r5, r6, r7, pc}
    1dc0:	68db      	ldr	r3, [r3, #12]
    1dc2:	68dc      	ldr	r4, [r3, #12]
    1dc4:	681e      	ldr	r6, [r3, #0]
    1dc6:	1d27      	adds	r7, r4, #4
    1dc8:	4b10      	ldr	r3, [pc, #64]	; (1e0c <prvSwitchTimerLists+0x60>)
    1dca:	0038      	movs	r0, r7
    1dcc:	4798      	blx	r3
    1dce:	6a63      	ldr	r3, [r4, #36]	; 0x24
    1dd0:	0020      	movs	r0, r4
    1dd2:	4798      	blx	r3
    1dd4:	69e3      	ldr	r3, [r4, #28]
    1dd6:	2b01      	cmp	r3, #1
    1dd8:	d1e9      	bne.n	1dae <prvSwitchTimerLists+0x2>
    1dda:	69a3      	ldr	r3, [r4, #24]
    1ddc:	18f3      	adds	r3, r6, r3
    1dde:	429e      	cmp	r6, r3
    1de0:	d206      	bcs.n	1df0 <prvSwitchTimerLists+0x44>
    1de2:	6063      	str	r3, [r4, #4]
    1de4:	6124      	str	r4, [r4, #16]
    1de6:	0039      	movs	r1, r7
    1de8:	6ae8      	ldr	r0, [r5, #44]	; 0x2c
    1dea:	4b09      	ldr	r3, [pc, #36]	; (1e10 <prvSwitchTimerLists+0x64>)
    1dec:	4798      	blx	r3
    1dee:	e7de      	b.n	1dae <prvSwitchTimerLists+0x2>
    1df0:	2100      	movs	r1, #0
    1df2:	0020      	movs	r0, r4
    1df4:	9100      	str	r1, [sp, #0]
    1df6:	000b      	movs	r3, r1
    1df8:	0032      	movs	r2, r6
    1dfa:	4c06      	ldr	r4, [pc, #24]	; (1e14 <prvSwitchTimerLists+0x68>)
    1dfc:	47a0      	blx	r4
    1dfe:	2800      	cmp	r0, #0
    1e00:	d1d5      	bne.n	1dae <prvSwitchTimerLists+0x2>
    1e02:	b672      	cpsid	i
    1e04:	e7fe      	b.n	1e04 <prvSwitchTimerLists+0x58>
    1e06:	46c0      	nop			; (mov r8, r8)
    1e08:	20002970 	.word	0x20002970
    1e0c:	00000c37 	.word	0x00000c37
    1e10:	00000c09 	.word	0x00000c09
    1e14:	00001d5d 	.word	0x00001d5d

00001e18 <prvTimerTask>:
    1e18:	b5f0      	push	{r4, r5, r6, r7, lr}
    1e1a:	b089      	sub	sp, #36	; 0x24
    1e1c:	2700      	movs	r7, #0
    1e1e:	4c52      	ldr	r4, [pc, #328]	; (1f68 <prvTimerTask+0x150>)
    1e20:	6ae3      	ldr	r3, [r4, #44]	; 0x2c
    1e22:	681a      	ldr	r2, [r3, #0]
    1e24:	9203      	str	r2, [sp, #12]
    1e26:	42ba      	cmp	r2, r7
    1e28:	d001      	beq.n	1e2e <prvTimerTask+0x16>
    1e2a:	68db      	ldr	r3, [r3, #12]
    1e2c:	681f      	ldr	r7, [r3, #0]
    1e2e:	4b4f      	ldr	r3, [pc, #316]	; (1f6c <prvTimerTask+0x154>)
    1e30:	4798      	blx	r3
    1e32:	4b4f      	ldr	r3, [pc, #316]	; (1f70 <prvTimerTask+0x158>)
    1e34:	4798      	blx	r3
    1e36:	2300      	movs	r3, #0
    1e38:	9302      	str	r3, [sp, #8]
    1e3a:	6b63      	ldr	r3, [r4, #52]	; 0x34
    1e3c:	0005      	movs	r5, r0
    1e3e:	4298      	cmp	r0, r3
    1e40:	d203      	bcs.n	1e4a <prvTimerTask+0x32>
    1e42:	4b4c      	ldr	r3, [pc, #304]	; (1f74 <prvTimerTask+0x15c>)
    1e44:	4798      	blx	r3
    1e46:	2301      	movs	r3, #1
    1e48:	9302      	str	r3, [sp, #8]
    1e4a:	9b02      	ldr	r3, [sp, #8]
    1e4c:	6365      	str	r5, [r4, #52]	; 0x34
    1e4e:	4e4a      	ldr	r6, [pc, #296]	; (1f78 <prvTimerTask+0x160>)
    1e50:	2b00      	cmp	r3, #0
    1e52:	d15c      	bne.n	1f0e <prvTimerTask+0xf6>
    1e54:	9b03      	ldr	r3, [sp, #12]
    1e56:	2b00      	cmp	r3, #0
    1e58:	d023      	beq.n	1ea2 <prvTimerTask+0x8a>
    1e5a:	42af      	cmp	r7, r5
    1e5c:	d821      	bhi.n	1ea2 <prvTimerTask+0x8a>
    1e5e:	47b0      	blx	r6
    1e60:	6ae3      	ldr	r3, [r4, #44]	; 0x2c
    1e62:	68db      	ldr	r3, [r3, #12]
    1e64:	68de      	ldr	r6, [r3, #12]
    1e66:	4b45      	ldr	r3, [pc, #276]	; (1f7c <prvTimerTask+0x164>)
    1e68:	1d30      	adds	r0, r6, #4
    1e6a:	4798      	blx	r3
    1e6c:	69f3      	ldr	r3, [r6, #28]
    1e6e:	2b01      	cmp	r3, #1
    1e70:	d113      	bne.n	1e9a <prvTimerTask+0x82>
    1e72:	69b3      	ldr	r3, [r6, #24]
    1e74:	002a      	movs	r2, r5
    1e76:	18f9      	adds	r1, r7, r3
    1e78:	0030      	movs	r0, r6
    1e7a:	003b      	movs	r3, r7
    1e7c:	4d40      	ldr	r5, [pc, #256]	; (1f80 <prvTimerTask+0x168>)
    1e7e:	47a8      	blx	r5
    1e80:	2801      	cmp	r0, #1
    1e82:	d10a      	bne.n	1e9a <prvTimerTask+0x82>
    1e84:	9b02      	ldr	r3, [sp, #8]
    1e86:	003a      	movs	r2, r7
    1e88:	9300      	str	r3, [sp, #0]
    1e8a:	0019      	movs	r1, r3
    1e8c:	0030      	movs	r0, r6
    1e8e:	4d3d      	ldr	r5, [pc, #244]	; (1f84 <prvTimerTask+0x16c>)
    1e90:	47a8      	blx	r5
    1e92:	2800      	cmp	r0, #0
    1e94:	d101      	bne.n	1e9a <prvTimerTask+0x82>
    1e96:	b672      	cpsid	i
    1e98:	e7fe      	b.n	1e98 <prvTimerTask+0x80>
    1e9a:	0030      	movs	r0, r6
    1e9c:	6a73      	ldr	r3, [r6, #36]	; 0x24
    1e9e:	4798      	blx	r3
    1ea0:	e008      	b.n	1eb4 <prvTimerTask+0x9c>
    1ea2:	1b79      	subs	r1, r7, r5
    1ea4:	6820      	ldr	r0, [r4, #0]
    1ea6:	4b38      	ldr	r3, [pc, #224]	; (1f88 <prvTimerTask+0x170>)
    1ea8:	4798      	blx	r3
    1eaa:	47b0      	blx	r6
    1eac:	2800      	cmp	r0, #0
    1eae:	d101      	bne.n	1eb4 <prvTimerTask+0x9c>
    1eb0:	4b36      	ldr	r3, [pc, #216]	; (1f8c <prvTimerTask+0x174>)
    1eb2:	4798      	blx	r3
    1eb4:	2300      	movs	r3, #0
    1eb6:	a905      	add	r1, sp, #20
    1eb8:	001a      	movs	r2, r3
    1eba:	6820      	ldr	r0, [r4, #0]
    1ebc:	4d34      	ldr	r5, [pc, #208]	; (1f90 <prvTimerTask+0x178>)
    1ebe:	47a8      	blx	r5
    1ec0:	2800      	cmp	r0, #0
    1ec2:	d0ab      	beq.n	1e1c <prvTimerTask+0x4>
    1ec4:	9b05      	ldr	r3, [sp, #20]
    1ec6:	2b00      	cmp	r3, #0
    1ec8:	dbf4      	blt.n	1eb4 <prvTimerTask+0x9c>
    1eca:	9d07      	ldr	r5, [sp, #28]
    1ecc:	696b      	ldr	r3, [r5, #20]
    1ece:	2b00      	cmp	r3, #0
    1ed0:	d002      	beq.n	1ed8 <prvTimerTask+0xc0>
    1ed2:	1d28      	adds	r0, r5, #4
    1ed4:	4b29      	ldr	r3, [pc, #164]	; (1f7c <prvTimerTask+0x164>)
    1ed6:	4798      	blx	r3
    1ed8:	4b25      	ldr	r3, [pc, #148]	; (1f70 <prvTimerTask+0x158>)
    1eda:	4798      	blx	r3
    1edc:	6b63      	ldr	r3, [r4, #52]	; 0x34
    1ede:	0006      	movs	r6, r0
    1ee0:	4298      	cmp	r0, r3
    1ee2:	d201      	bcs.n	1ee8 <prvTimerTask+0xd0>
    1ee4:	4b23      	ldr	r3, [pc, #140]	; (1f74 <prvTimerTask+0x15c>)
    1ee6:	4798      	blx	r3
    1ee8:	9b05      	ldr	r3, [sp, #20]
    1eea:	6366      	str	r6, [r4, #52]	; 0x34
    1eec:	2b09      	cmp	r3, #9
    1eee:	d8e1      	bhi.n	1eb4 <prvTimerTask+0x9c>
    1ef0:	2201      	movs	r2, #1
    1ef2:	2784      	movs	r7, #132	; 0x84
    1ef4:	409a      	lsls	r2, r3
    1ef6:	00bf      	lsls	r7, r7, #2
    1ef8:	0013      	movs	r3, r2
    1efa:	4017      	ands	r7, r2
    1efc:	d126      	bne.n	1f4c <prvTimerTask+0x134>
    1efe:	22c7      	movs	r2, #199	; 0xc7
    1f00:	4213      	tst	r3, r2
    1f02:	d106      	bne.n	1f12 <prvTimerTask+0xfa>
    1f04:	069b      	lsls	r3, r3, #26
    1f06:	d5d5      	bpl.n	1eb4 <prvTimerTask+0x9c>
    1f08:	0028      	movs	r0, r5
    1f0a:	4b22      	ldr	r3, [pc, #136]	; (1f94 <prvTimerTask+0x17c>)
    1f0c:	e7c7      	b.n	1e9e <prvTimerTask+0x86>
    1f0e:	47b0      	blx	r6
    1f10:	e7d0      	b.n	1eb4 <prvTimerTask+0x9c>
    1f12:	9b06      	ldr	r3, [sp, #24]
    1f14:	69aa      	ldr	r2, [r5, #24]
    1f16:	0028      	movs	r0, r5
    1f18:	1899      	adds	r1, r3, r2
    1f1a:	0032      	movs	r2, r6
    1f1c:	4e18      	ldr	r6, [pc, #96]	; (1f80 <prvTimerTask+0x168>)
    1f1e:	9302      	str	r3, [sp, #8]
    1f20:	47b0      	blx	r6
    1f22:	2801      	cmp	r0, #1
    1f24:	d1c6      	bne.n	1eb4 <prvTimerTask+0x9c>
    1f26:	6a6b      	ldr	r3, [r5, #36]	; 0x24
    1f28:	0028      	movs	r0, r5
    1f2a:	4798      	blx	r3
    1f2c:	69eb      	ldr	r3, [r5, #28]
    1f2e:	2b01      	cmp	r3, #1
    1f30:	d1c0      	bne.n	1eb4 <prvTimerTask+0x9c>
    1f32:	69ab      	ldr	r3, [r5, #24]
    1f34:	9a06      	ldr	r2, [sp, #24]
    1f36:	0028      	movs	r0, r5
    1f38:	18d2      	adds	r2, r2, r3
    1f3a:	9700      	str	r7, [sp, #0]
    1f3c:	003b      	movs	r3, r7
    1f3e:	0039      	movs	r1, r7
    1f40:	4d10      	ldr	r5, [pc, #64]	; (1f84 <prvTimerTask+0x16c>)
    1f42:	47a8      	blx	r5
    1f44:	2800      	cmp	r0, #0
    1f46:	d1b5      	bne.n	1eb4 <prvTimerTask+0x9c>
    1f48:	b672      	cpsid	i
    1f4a:	e7fe      	b.n	1f4a <prvTimerTask+0x132>
    1f4c:	9906      	ldr	r1, [sp, #24]
    1f4e:	61a9      	str	r1, [r5, #24]
    1f50:	2900      	cmp	r1, #0
    1f52:	d101      	bne.n	1f58 <prvTimerTask+0x140>
    1f54:	b672      	cpsid	i
    1f56:	e7fe      	b.n	1f56 <prvTimerTask+0x13e>
    1f58:	1989      	adds	r1, r1, r6
    1f5a:	0033      	movs	r3, r6
    1f5c:	0032      	movs	r2, r6
    1f5e:	0028      	movs	r0, r5
    1f60:	4d07      	ldr	r5, [pc, #28]	; (1f80 <prvTimerTask+0x168>)
    1f62:	47a8      	blx	r5
    1f64:	e7a6      	b.n	1eb4 <prvTimerTask+0x9c>
    1f66:	46c0      	nop			; (mov r8, r8)
    1f68:	20002970 	.word	0x20002970
    1f6c:	0000173d 	.word	0x0000173d
    1f70:	0000174d 	.word	0x0000174d
    1f74:	00001dad 	.word	0x00001dad
    1f78:	00001855 	.word	0x00001855
    1f7c:	00000c37 	.word	0x00000c37
    1f80:	00001c95 	.word	0x00001c95
    1f84:	00001d5d 	.word	0x00001d5d
    1f88:	00001451 	.word	0x00001451
    1f8c:	00000cb1 	.word	0x00000cb1
    1f90:	000012e9 	.word	0x000012e9
    1f94:	00000e3d 	.word	0x00000e3d

00001f98 <__libc_init_array>:
    1f98:	b570      	push	{r4, r5, r6, lr}
    1f9a:	2600      	movs	r6, #0
    1f9c:	4d0c      	ldr	r5, [pc, #48]	; (1fd0 <__libc_init_array+0x38>)
    1f9e:	4c0d      	ldr	r4, [pc, #52]	; (1fd4 <__libc_init_array+0x3c>)
    1fa0:	1b64      	subs	r4, r4, r5
    1fa2:	10a4      	asrs	r4, r4, #2
    1fa4:	42a6      	cmp	r6, r4
    1fa6:	d109      	bne.n	1fbc <__libc_init_array+0x24>
    1fa8:	2600      	movs	r6, #0
    1faa:	f000 f86b 	bl	2084 <_init>
    1fae:	4d0a      	ldr	r5, [pc, #40]	; (1fd8 <__libc_init_array+0x40>)
    1fb0:	4c0a      	ldr	r4, [pc, #40]	; (1fdc <__libc_init_array+0x44>)
    1fb2:	1b64      	subs	r4, r4, r5
    1fb4:	10a4      	asrs	r4, r4, #2
    1fb6:	42a6      	cmp	r6, r4
    1fb8:	d105      	bne.n	1fc6 <__libc_init_array+0x2e>
    1fba:	bd70      	pop	{r4, r5, r6, pc}
    1fbc:	00b3      	lsls	r3, r6, #2
    1fbe:	58eb      	ldr	r3, [r5, r3]
    1fc0:	4798      	blx	r3
    1fc2:	3601      	adds	r6, #1
    1fc4:	e7ee      	b.n	1fa4 <__libc_init_array+0xc>
    1fc6:	00b3      	lsls	r3, r6, #2
    1fc8:	58eb      	ldr	r3, [r5, r3]
    1fca:	4798      	blx	r3
    1fcc:	3601      	adds	r6, #1
    1fce:	e7f2      	b.n	1fb6 <__libc_init_array+0x1e>
    1fd0:	00002090 	.word	0x00002090
    1fd4:	00002090 	.word	0x00002090
    1fd8:	00002090 	.word	0x00002090
    1fdc:	00002094 	.word	0x00002094

00001fe0 <memcpy>:
    1fe0:	2300      	movs	r3, #0
    1fe2:	b510      	push	{r4, lr}
    1fe4:	429a      	cmp	r2, r3
    1fe6:	d100      	bne.n	1fea <memcpy+0xa>
    1fe8:	bd10      	pop	{r4, pc}
    1fea:	5ccc      	ldrb	r4, [r1, r3]
    1fec:	54c4      	strb	r4, [r0, r3]
    1fee:	3301      	adds	r3, #1
    1ff0:	e7f8      	b.n	1fe4 <memcpy+0x4>

00001ff2 <memset>:
    1ff2:	0003      	movs	r3, r0
    1ff4:	1882      	adds	r2, r0, r2
    1ff6:	4293      	cmp	r3, r2
    1ff8:	d100      	bne.n	1ffc <memset+0xa>
    1ffa:	4770      	bx	lr
    1ffc:	7019      	strb	r1, [r3, #0]
    1ffe:	3301      	adds	r3, #1
    2000:	e7f9      	b.n	1ff6 <memset+0x4>

00002002 <strlen>:
    2002:	2300      	movs	r3, #0
    2004:	5cc2      	ldrb	r2, [r0, r3]
    2006:	3301      	adds	r3, #1
    2008:	2a00      	cmp	r2, #0
    200a:	d1fb      	bne.n	2004 <strlen+0x2>
    200c:	1e58      	subs	r0, r3, #1
    200e:	4770      	bx	lr
    2010:	54203141 	.word	0x54203141
    2014:	6f656d69 	.word	0x6f656d69
    2018:	41007475 	.word	0x41007475
    201c:	61572031 	.word	0x61572031
    2020:	5520656b 	.word	0x5520656b
    2024:	69542070 	.word	0x69542070
    2028:	0072656d 	.word	0x0072656d
    202c:	54203241 	.word	0x54203241
    2030:	6f656d69 	.word	0x6f656d69
    2034:	41007475 	.word	0x41007475
    2038:	61572032 	.word	0x61572032
    203c:	5520656b 	.word	0x5520656b
    2040:	69542070 	.word	0x69542070
    2044:	0072656d 	.word	0x0072656d
    2048:	41003141 	.word	0x41003141
    204c:	45530032 	.word	0x45530032
    2050:	4c414952 	.word	0x4c414952
    2054:	00          	.byte	0x00
    2055:	55          	.byte	0x55
    2056:	6b6e      	.short	0x6b6e
    2058:	6e776f6e 	.word	0x6e776f6e
    205c:	73617420 	.word	0x73617420
    2060:	3a6b      	.short	0x3a6b
    2062:	00          	.byte	0x00
    2063:	49          	.byte	0x49
    2064:	00454c44 	.word	0x00454c44
    2068:	09097325 	.word	0x09097325
    206c:	25096325 	.word	0x25096325
    2070:	75250975 	.word	0x75250975
    2074:	0d752509 	.word	0x0d752509
    2078:	000a      	.short	0x000a
    207a:	6d54      	.short	0x6d54
    207c:	76532072 	.word	0x76532072
    2080:	00000063 	.word	0x00000063

00002084 <_init>:
    2084:	b5f8      	push	{r3, r4, r5, r6, r7, lr}
    2086:	46c0      	nop			; (mov r8, r8)
    2088:	bcf8      	pop	{r3, r4, r5, r6, r7}
    208a:	bc08      	pop	{r3}
    208c:	469e      	mov	lr, r3
    208e:	4770      	bx	lr

00002090 <__init_array_start>:
    2090:	000000dd 	.word	0x000000dd

00002094 <_fini>:
    2094:	b5f8      	push	{r3, r4, r5, r6, r7, lr}
    2096:	46c0      	nop			; (mov r8, r8)
    2098:	bcf8      	pop	{r3, r4, r5, r6, r7}
    209a:	bc08      	pop	{r3}
    209c:	469e      	mov	lr, r3
    209e:	4770      	bx	lr

000020a0 <__fini_array_start>:
    20a0:	000000b5 	.word	0x000000b5
